; Listing generated by Microsoft (R) Optimizing Compiler Version 15.00.21022.08 

	TITLE	y:\asl\software\video_compressor\vid_reader\zlib\zlib-1.2.3\deflate.c
	.686P
	.XMM
	include listing.inc
	.model	flat

INCLUDELIB OLDNAMES

PUBLIC	_deflate_copyright
EXTRN	_memset:PROC
EXTRN	_memcpy:PROC
_deflate_copyright DB ' deflate 1.2.3 Copyright 1995-2005 Jean-loup Gaill'
	DB	'y ', 00H
	ORG $+3
_configuration_table DW 00H
	DW	00H
	DW	00H
	DW	00H
	DD	FLAT:_deflate_stored
	DW	04H
	DW	04H
	DW	08H
	DW	04H
	DD	FLAT:_deflate_fast
	DW	04H
	DW	05H
	DW	010H
	DW	08H
	DD	FLAT:_deflate_fast
	DW	04H
	DW	06H
	DW	020H
	DW	020H
	DD	FLAT:_deflate_fast
	DW	04H
	DW	04H
	DW	010H
	DW	010H
	DD	FLAT:_deflate_slow
	DW	08H
	DW	010H
	DW	020H
	DW	020H
	DD	FLAT:_deflate_slow
	DW	08H
	DW	010H
	DW	080H
	DW	080H
	DD	FLAT:_deflate_slow
	DW	08H
	DW	020H
	DW	080H
	DW	0100H
	DD	FLAT:_deflate_slow
	DW	020H
	DW	080H
	DW	0102H
	DW	0400H
	DD	FLAT:_deflate_slow
	DW	020H
	DW	0102H
	DW	0102H
	DW	01000H
	DD	FLAT:_deflate_slow
?my_version@?1??deflateInit2_@@9@9 DB '1.2.3', 00H	; `deflateInit2_'::`2'::my_version
; Function compile flags: /Odtp
; File y:\asl\software\video_compressor\vid_reader\zlib\zlib-1.2.3\deflate.c
;	COMDAT _longest_match_fast
_TEXT	SEGMENT
tv163 = -20						; size = 4
_match$ = -16						; size = 4
_strend$ = -12						; size = 4
_scan$ = -8						; size = 4
_len$ = -4						; size = 4
_s$ = 8							; size = 4
_cur_match$ = 12					; size = 4
_longest_match_fast PROC				; COMDAT

; 1178 : {

  00000	55		 push	 ebp
  00001	8b ec		 mov	 ebp, esp
  00003	83 ec 14	 sub	 esp, 20			; 00000014H

; 1179 :     register Bytef *scan = s->window + s->strstart; /* current string */

  00006	8b 45 08	 mov	 eax, DWORD PTR _s$[ebp]
  00009	8b 48 38	 mov	 ecx, DWORD PTR [eax+56]
  0000c	8b 55 08	 mov	 edx, DWORD PTR _s$[ebp]
  0000f	03 4a 6c	 add	 ecx, DWORD PTR [edx+108]
  00012	89 4d f8	 mov	 DWORD PTR _scan$[ebp], ecx

; 1180 :     register Bytef *match;                       /* matched string */
; 1181 :     register int len;                           /* length of current match */
; 1182 :     register Bytef *strend = s->window + s->strstart + MAX_MATCH;

  00015	8b 45 08	 mov	 eax, DWORD PTR _s$[ebp]
  00018	8b 48 38	 mov	 ecx, DWORD PTR [eax+56]
  0001b	8b 55 08	 mov	 edx, DWORD PTR _s$[ebp]
  0001e	8b 42 6c	 mov	 eax, DWORD PTR [edx+108]
  00021	8d 8c 01 02 01
	00 00		 lea	 ecx, DWORD PTR [ecx+eax+258]
  00028	89 4d f4	 mov	 DWORD PTR _strend$[ebp], ecx

; 1183 : 
; 1184 :     /* The code is optimized for HASH_BITS >= 8 and MAX_MATCH-2 multiple of 16.
; 1185 :      * It is easy to get rid of this optimization if necessary.
; 1186 :      */
; 1187 :     Assert(s->hash_bits >= 8 && MAX_MATCH == 258, "Code too clever");
; 1188 : 
; 1189 :     Assert((ulg)s->strstart <= s->window_size-MIN_LOOKAHEAD, "need lookahead");
; 1190 : 
; 1191 :     Assert(cur_match < s->strstart, "no future");
; 1192 : 
; 1193 :     match = s->window + cur_match;

  0002b	8b 55 08	 mov	 edx, DWORD PTR _s$[ebp]
  0002e	8b 42 38	 mov	 eax, DWORD PTR [edx+56]
  00031	03 45 0c	 add	 eax, DWORD PTR _cur_match$[ebp]
  00034	89 45 f0	 mov	 DWORD PTR _match$[ebp], eax

; 1194 : 
; 1195 :     /* Return failure if the match length is less than 2:
; 1196 :      */
; 1197 :     if (match[0] != scan[0] || match[1] != scan[1]) return MIN_MATCH-1;

  00037	8b 4d f0	 mov	 ecx, DWORD PTR _match$[ebp]
  0003a	0f b6 11	 movzx	 edx, BYTE PTR [ecx]
  0003d	8b 45 f8	 mov	 eax, DWORD PTR _scan$[ebp]
  00040	0f b6 08	 movzx	 ecx, BYTE PTR [eax]
  00043	3b d1		 cmp	 edx, ecx
  00045	75 12		 jne	 SHORT $LN6@longest_ma@2
  00047	8b 55 f0	 mov	 edx, DWORD PTR _match$[ebp]
  0004a	0f b6 42 01	 movzx	 eax, BYTE PTR [edx+1]
  0004e	8b 4d f8	 mov	 ecx, DWORD PTR _scan$[ebp]
  00051	0f b6 51 01	 movzx	 edx, BYTE PTR [ecx+1]
  00055	3b c2		 cmp	 eax, edx
  00057	74 0a		 je	 SHORT $LN7@longest_ma@2
$LN6@longest_ma@2:
  00059	b8 02 00 00 00	 mov	 eax, 2
  0005e	e9 83 01 00 00	 jmp	 $LN8@longest_ma@2
$LN7@longest_ma@2:

; 1198 : 
; 1199 :     /* The check at best_len-1 can be removed because it will be made
; 1200 :      * again later. (This heuristic is not always a win.)
; 1201 :      * It is not necessary to compare scan[2] and match[2] since they
; 1202 :      * are always equal when the other bytes match, given that
; 1203 :      * the hash keys are equal and that HASH_BITS >= 8.
; 1204 :      */
; 1205 :     scan += 2, match += 2;

  00063	8b 45 f8	 mov	 eax, DWORD PTR _scan$[ebp]
  00066	83 c0 02	 add	 eax, 2
  00069	89 45 f8	 mov	 DWORD PTR _scan$[ebp], eax
  0006c	8b 4d f0	 mov	 ecx, DWORD PTR _match$[ebp]
  0006f	83 c1 02	 add	 ecx, 2
  00072	89 4d f0	 mov	 DWORD PTR _match$[ebp], ecx
$LN4@longest_ma@2:

; 1206 :     Assert(*scan == *match, "match[2]?");
; 1207 : 
; 1208 :     /* We check for insufficient lookahead only every 8th comparison;
; 1209 :      * the 256th check will be made at strstart+258.
; 1210 :      */
; 1211 :     do {
; 1212 :     } while (*++scan == *++match && *++scan == *++match &&
; 1213 :              *++scan == *++match && *++scan == *++match &&
; 1214 :              *++scan == *++match && *++scan == *++match &&
; 1215 :              *++scan == *++match && *++scan == *++match &&
; 1216 :              scan < strend);

  00075	8b 55 f8	 mov	 edx, DWORD PTR _scan$[ebp]
  00078	83 c2 01	 add	 edx, 1
  0007b	89 55 f8	 mov	 DWORD PTR _scan$[ebp], edx
  0007e	8b 45 f0	 mov	 eax, DWORD PTR _match$[ebp]
  00081	83 c0 01	 add	 eax, 1
  00084	89 45 f0	 mov	 DWORD PTR _match$[ebp], eax
  00087	8b 4d f0	 mov	 ecx, DWORD PTR _match$[ebp]
  0008a	0f b6 11	 movzx	 edx, BYTE PTR [ecx]
  0008d	8b 45 f8	 mov	 eax, DWORD PTR _scan$[ebp]
  00090	0f b6 08	 movzx	 ecx, BYTE PTR [eax]
  00093	3b ca		 cmp	 ecx, edx
  00095	0f 85 06 01 00
	00		 jne	 $LN3@longest_ma@2
  0009b	8b 55 f8	 mov	 edx, DWORD PTR _scan$[ebp]
  0009e	83 c2 01	 add	 edx, 1
  000a1	89 55 f8	 mov	 DWORD PTR _scan$[ebp], edx
  000a4	8b 45 f0	 mov	 eax, DWORD PTR _match$[ebp]
  000a7	83 c0 01	 add	 eax, 1
  000aa	89 45 f0	 mov	 DWORD PTR _match$[ebp], eax
  000ad	8b 4d f0	 mov	 ecx, DWORD PTR _match$[ebp]
  000b0	0f b6 11	 movzx	 edx, BYTE PTR [ecx]
  000b3	8b 45 f8	 mov	 eax, DWORD PTR _scan$[ebp]
  000b6	0f b6 08	 movzx	 ecx, BYTE PTR [eax]
  000b9	3b ca		 cmp	 ecx, edx
  000bb	0f 85 e0 00 00
	00		 jne	 $LN3@longest_ma@2
  000c1	8b 55 f8	 mov	 edx, DWORD PTR _scan$[ebp]
  000c4	83 c2 01	 add	 edx, 1
  000c7	89 55 f8	 mov	 DWORD PTR _scan$[ebp], edx
  000ca	8b 45 f0	 mov	 eax, DWORD PTR _match$[ebp]
  000cd	83 c0 01	 add	 eax, 1
  000d0	89 45 f0	 mov	 DWORD PTR _match$[ebp], eax
  000d3	8b 4d f0	 mov	 ecx, DWORD PTR _match$[ebp]
  000d6	0f b6 11	 movzx	 edx, BYTE PTR [ecx]
  000d9	8b 45 f8	 mov	 eax, DWORD PTR _scan$[ebp]
  000dc	0f b6 08	 movzx	 ecx, BYTE PTR [eax]
  000df	3b ca		 cmp	 ecx, edx
  000e1	0f 85 ba 00 00
	00		 jne	 $LN3@longest_ma@2
  000e7	8b 55 f8	 mov	 edx, DWORD PTR _scan$[ebp]
  000ea	83 c2 01	 add	 edx, 1
  000ed	89 55 f8	 mov	 DWORD PTR _scan$[ebp], edx
  000f0	8b 45 f0	 mov	 eax, DWORD PTR _match$[ebp]
  000f3	83 c0 01	 add	 eax, 1
  000f6	89 45 f0	 mov	 DWORD PTR _match$[ebp], eax
  000f9	8b 4d f0	 mov	 ecx, DWORD PTR _match$[ebp]
  000fc	0f b6 11	 movzx	 edx, BYTE PTR [ecx]
  000ff	8b 45 f8	 mov	 eax, DWORD PTR _scan$[ebp]
  00102	0f b6 08	 movzx	 ecx, BYTE PTR [eax]
  00105	3b ca		 cmp	 ecx, edx
  00107	0f 85 94 00 00
	00		 jne	 $LN3@longest_ma@2
  0010d	8b 55 f8	 mov	 edx, DWORD PTR _scan$[ebp]
  00110	83 c2 01	 add	 edx, 1
  00113	89 55 f8	 mov	 DWORD PTR _scan$[ebp], edx
  00116	8b 45 f0	 mov	 eax, DWORD PTR _match$[ebp]
  00119	83 c0 01	 add	 eax, 1
  0011c	89 45 f0	 mov	 DWORD PTR _match$[ebp], eax
  0011f	8b 4d f0	 mov	 ecx, DWORD PTR _match$[ebp]
  00122	0f b6 11	 movzx	 edx, BYTE PTR [ecx]
  00125	8b 45 f8	 mov	 eax, DWORD PTR _scan$[ebp]
  00128	0f b6 08	 movzx	 ecx, BYTE PTR [eax]
  0012b	3b ca		 cmp	 ecx, edx
  0012d	75 72		 jne	 SHORT $LN3@longest_ma@2
  0012f	8b 55 f8	 mov	 edx, DWORD PTR _scan$[ebp]
  00132	83 c2 01	 add	 edx, 1
  00135	89 55 f8	 mov	 DWORD PTR _scan$[ebp], edx
  00138	8b 45 f0	 mov	 eax, DWORD PTR _match$[ebp]
  0013b	83 c0 01	 add	 eax, 1
  0013e	89 45 f0	 mov	 DWORD PTR _match$[ebp], eax
  00141	8b 4d f0	 mov	 ecx, DWORD PTR _match$[ebp]
  00144	0f b6 11	 movzx	 edx, BYTE PTR [ecx]
  00147	8b 45 f8	 mov	 eax, DWORD PTR _scan$[ebp]
  0014a	0f b6 08	 movzx	 ecx, BYTE PTR [eax]
  0014d	3b ca		 cmp	 ecx, edx
  0014f	75 50		 jne	 SHORT $LN3@longest_ma@2
  00151	8b 55 f8	 mov	 edx, DWORD PTR _scan$[ebp]
  00154	83 c2 01	 add	 edx, 1
  00157	89 55 f8	 mov	 DWORD PTR _scan$[ebp], edx
  0015a	8b 45 f0	 mov	 eax, DWORD PTR _match$[ebp]
  0015d	83 c0 01	 add	 eax, 1
  00160	89 45 f0	 mov	 DWORD PTR _match$[ebp], eax
  00163	8b 4d f0	 mov	 ecx, DWORD PTR _match$[ebp]
  00166	0f b6 11	 movzx	 edx, BYTE PTR [ecx]
  00169	8b 45 f8	 mov	 eax, DWORD PTR _scan$[ebp]
  0016c	0f b6 08	 movzx	 ecx, BYTE PTR [eax]
  0016f	3b ca		 cmp	 ecx, edx
  00171	75 2e		 jne	 SHORT $LN3@longest_ma@2
  00173	8b 55 f8	 mov	 edx, DWORD PTR _scan$[ebp]
  00176	83 c2 01	 add	 edx, 1
  00179	89 55 f8	 mov	 DWORD PTR _scan$[ebp], edx
  0017c	8b 45 f0	 mov	 eax, DWORD PTR _match$[ebp]
  0017f	83 c0 01	 add	 eax, 1
  00182	89 45 f0	 mov	 DWORD PTR _match$[ebp], eax
  00185	8b 4d f0	 mov	 ecx, DWORD PTR _match$[ebp]
  00188	0f b6 11	 movzx	 edx, BYTE PTR [ecx]
  0018b	8b 45 f8	 mov	 eax, DWORD PTR _scan$[ebp]
  0018e	0f b6 08	 movzx	 ecx, BYTE PTR [eax]
  00191	3b ca		 cmp	 ecx, edx
  00193	75 0c		 jne	 SHORT $LN3@longest_ma@2
  00195	8b 55 f8	 mov	 edx, DWORD PTR _scan$[ebp]
  00198	3b 55 f4	 cmp	 edx, DWORD PTR _strend$[ebp]
  0019b	0f 82 d4 fe ff
	ff		 jb	 $LN4@longest_ma@2
$LN3@longest_ma@2:

; 1217 : 
; 1218 :     Assert(scan <= s->window+(unsigned)(s->window_size-1), "wild scan");
; 1219 : 
; 1220 :     len = MAX_MATCH - (int)(strend - scan);

  001a1	8b 45 f4	 mov	 eax, DWORD PTR _strend$[ebp]
  001a4	2b 45 f8	 sub	 eax, DWORD PTR _scan$[ebp]
  001a7	b9 02 01 00 00	 mov	 ecx, 258		; 00000102H
  001ac	2b c8		 sub	 ecx, eax
  001ae	89 4d fc	 mov	 DWORD PTR _len$[ebp], ecx

; 1221 : 
; 1222 :     if (len < MIN_MATCH) return MIN_MATCH - 1;

  001b1	83 7d fc 03	 cmp	 DWORD PTR _len$[ebp], 3
  001b5	7d 07		 jge	 SHORT $LN1@longest_ma@2
  001b7	b8 02 00 00 00	 mov	 eax, 2
  001bc	eb 28		 jmp	 SHORT $LN8@longest_ma@2
$LN1@longest_ma@2:

; 1223 : 
; 1224 :     s->match_start = cur_match;

  001be	8b 55 08	 mov	 edx, DWORD PTR _s$[ebp]
  001c1	8b 45 0c	 mov	 eax, DWORD PTR _cur_match$[ebp]
  001c4	89 42 70	 mov	 DWORD PTR [edx+112], eax

; 1225 :     return (uInt)len <= s->lookahead ? (uInt)len : s->lookahead;

  001c7	8b 4d 08	 mov	 ecx, DWORD PTR _s$[ebp]
  001ca	8b 55 fc	 mov	 edx, DWORD PTR _len$[ebp]
  001cd	3b 51 74	 cmp	 edx, DWORD PTR [ecx+116]
  001d0	77 08		 ja	 SHORT $LN10@longest_ma@2
  001d2	8b 45 fc	 mov	 eax, DWORD PTR _len$[ebp]
  001d5	89 45 ec	 mov	 DWORD PTR tv163[ebp], eax
  001d8	eb 09		 jmp	 SHORT $LN11@longest_ma@2
$LN10@longest_ma@2:
  001da	8b 4d 08	 mov	 ecx, DWORD PTR _s$[ebp]
  001dd	8b 51 74	 mov	 edx, DWORD PTR [ecx+116]
  001e0	89 55 ec	 mov	 DWORD PTR tv163[ebp], edx
$LN11@longest_ma@2:
  001e3	8b 45 ec	 mov	 eax, DWORD PTR tv163[ebp]
$LN8@longest_ma@2:

; 1226 : }

  001e6	8b e5		 mov	 esp, ebp
  001e8	5d		 pop	 ebp
  001e9	c3		 ret	 0
_longest_match_fast ENDP
; Function compile flags: /Odtp
_TEXT	ENDS
;	COMDAT _lm_init
_TEXT	SEGMENT
_s$ = 8							; size = 4
_lm_init PROC						; COMDAT

; 988  : {

  00000	55		 push	 ebp
  00001	8b ec		 mov	 ebp, esp

; 989  :     s->window_size = (ulg)2L*s->w_size;

  00003	8b 45 08	 mov	 eax, DWORD PTR _s$[ebp]
  00006	8b 48 2c	 mov	 ecx, DWORD PTR [eax+44]
  00009	d1 e1		 shl	 ecx, 1
  0000b	8b 55 08	 mov	 edx, DWORD PTR _s$[ebp]
  0000e	89 4a 3c	 mov	 DWORD PTR [edx+60], ecx

; 990  : 
; 991  :     CLEAR_HASH(s);

  00011	8b 45 08	 mov	 eax, DWORD PTR _s$[ebp]
  00014	8b 48 4c	 mov	 ecx, DWORD PTR [eax+76]
  00017	8b 55 08	 mov	 edx, DWORD PTR _s$[ebp]
  0001a	8b 42 44	 mov	 eax, DWORD PTR [edx+68]
  0001d	33 d2		 xor	 edx, edx
  0001f	66 89 54 48 fe	 mov	 WORD PTR [eax+ecx*2-2], dx
  00024	8b 45 08	 mov	 eax, DWORD PTR _s$[ebp]
  00027	8b 48 4c	 mov	 ecx, DWORD PTR [eax+76]
  0002a	8d 54 09 fe	 lea	 edx, DWORD PTR [ecx+ecx-2]
  0002e	52		 push	 edx
  0002f	6a 00		 push	 0
  00031	8b 45 08	 mov	 eax, DWORD PTR _s$[ebp]
  00034	8b 48 44	 mov	 ecx, DWORD PTR [eax+68]
  00037	51		 push	 ecx
  00038	e8 00 00 00 00	 call	 _memset
  0003d	83 c4 0c	 add	 esp, 12			; 0000000cH

; 992  : 
; 993  :     /* Set the default configuration parameters:
; 994  :      */
; 995  :     s->max_lazy_match   = configuration_table[s->level].max_lazy;

  00040	8b 55 08	 mov	 edx, DWORD PTR _s$[ebp]
  00043	8b 82 84 00 00
	00		 mov	 eax, DWORD PTR [edx+132]
  00049	6b c0 0c	 imul	 eax, 12			; 0000000cH
  0004c	0f b7 88 02 00
	00 00		 movzx	 ecx, WORD PTR _configuration_table[eax+2]
  00053	8b 55 08	 mov	 edx, DWORD PTR _s$[ebp]
  00056	89 8a 80 00 00
	00		 mov	 DWORD PTR [edx+128], ecx

; 996  :     s->good_match       = configuration_table[s->level].good_length;

  0005c	8b 45 08	 mov	 eax, DWORD PTR _s$[ebp]
  0005f	8b 88 84 00 00
	00		 mov	 ecx, DWORD PTR [eax+132]
  00065	6b c9 0c	 imul	 ecx, 12			; 0000000cH
  00068	0f b7 91 00 00
	00 00		 movzx	 edx, WORD PTR _configuration_table[ecx]
  0006f	8b 45 08	 mov	 eax, DWORD PTR _s$[ebp]
  00072	89 90 8c 00 00
	00		 mov	 DWORD PTR [eax+140], edx

; 997  :     s->nice_match       = configuration_table[s->level].nice_length;

  00078	8b 4d 08	 mov	 ecx, DWORD PTR _s$[ebp]
  0007b	8b 91 84 00 00
	00		 mov	 edx, DWORD PTR [ecx+132]
  00081	6b d2 0c	 imul	 edx, 12			; 0000000cH
  00084	0f b7 82 04 00
	00 00		 movzx	 eax, WORD PTR _configuration_table[edx+4]
  0008b	8b 4d 08	 mov	 ecx, DWORD PTR _s$[ebp]
  0008e	89 81 90 00 00
	00		 mov	 DWORD PTR [ecx+144], eax

; 998  :     s->max_chain_length = configuration_table[s->level].max_chain;

  00094	8b 55 08	 mov	 edx, DWORD PTR _s$[ebp]
  00097	8b 82 84 00 00
	00		 mov	 eax, DWORD PTR [edx+132]
  0009d	6b c0 0c	 imul	 eax, 12			; 0000000cH
  000a0	0f b7 88 06 00
	00 00		 movzx	 ecx, WORD PTR _configuration_table[eax+6]
  000a7	8b 55 08	 mov	 edx, DWORD PTR _s$[ebp]
  000aa	89 4a 7c	 mov	 DWORD PTR [edx+124], ecx

; 999  : 
; 1000 :     s->strstart = 0;

  000ad	8b 45 08	 mov	 eax, DWORD PTR _s$[ebp]
  000b0	c7 40 6c 00 00
	00 00		 mov	 DWORD PTR [eax+108], 0

; 1001 :     s->block_start = 0L;

  000b7	8b 4d 08	 mov	 ecx, DWORD PTR _s$[ebp]
  000ba	c7 41 5c 00 00
	00 00		 mov	 DWORD PTR [ecx+92], 0

; 1002 :     s->lookahead = 0;

  000c1	8b 55 08	 mov	 edx, DWORD PTR _s$[ebp]
  000c4	c7 42 74 00 00
	00 00		 mov	 DWORD PTR [edx+116], 0

; 1003 :     s->match_length = s->prev_length = MIN_MATCH-1;

  000cb	8b 45 08	 mov	 eax, DWORD PTR _s$[ebp]
  000ce	c7 40 78 02 00
	00 00		 mov	 DWORD PTR [eax+120], 2
  000d5	8b 4d 08	 mov	 ecx, DWORD PTR _s$[ebp]
  000d8	c7 41 60 02 00
	00 00		 mov	 DWORD PTR [ecx+96], 2

; 1004 :     s->match_available = 0;

  000df	8b 55 08	 mov	 edx, DWORD PTR _s$[ebp]
  000e2	c7 42 68 00 00
	00 00		 mov	 DWORD PTR [edx+104], 0

; 1005 :     s->ins_h = 0;

  000e9	8b 45 08	 mov	 eax, DWORD PTR _s$[ebp]
  000ec	c7 40 48 00 00
	00 00		 mov	 DWORD PTR [eax+72], 0

; 1006 : #ifndef FASTEST
; 1007 : #ifdef ASMV
; 1008 :     match_init(); /* initialize the asm code */

  000f3	e8 00 00 00 00	 call	 _match_init

; 1009 : #endif
; 1010 : #endif
; 1011 : }

  000f8	5d		 pop	 ebp
  000f9	c3		 ret	 0
_lm_init ENDP
_TEXT	ENDS
PUBLIC	_deflateEnd@4
; Function compile flags: /Odtp
;	COMDAT _deflateEnd@4
_TEXT	SEGMENT
_status$ = -4						; size = 4
_strm$ = 8						; size = 4
_deflateEnd@4 PROC					; COMDAT

; 861  : {

  00000	55		 push	 ebp
  00001	8b ec		 mov	 ebp, esp
  00003	51		 push	 ecx

; 862  :     int status;
; 863  : 
; 864  :     if (strm == Z_NULL || strm->state == Z_NULL) return Z_STREAM_ERROR;

  00004	83 7d 08 00	 cmp	 DWORD PTR _strm$[ebp], 0
  00008	74 09		 je	 SHORT $LN6@deflateEnd
  0000a	8b 45 08	 mov	 eax, DWORD PTR _strm$[ebp]
  0000d	83 78 1c 00	 cmp	 DWORD PTR [eax+28], 0
  00011	75 0a		 jne	 SHORT $LN7@deflateEnd
$LN6@deflateEnd:
  00013	b8 fe ff ff ff	 mov	 eax, -2			; fffffffeH
  00018	e9 15 01 00 00	 jmp	 $LN8@deflateEnd
$LN7@deflateEnd:

; 865  : 
; 866  :     status = strm->state->status;

  0001d	8b 4d 08	 mov	 ecx, DWORD PTR _strm$[ebp]
  00020	8b 51 1c	 mov	 edx, DWORD PTR [ecx+28]
  00023	8b 42 04	 mov	 eax, DWORD PTR [edx+4]
  00026	89 45 fc	 mov	 DWORD PTR _status$[ebp], eax

; 867  :     if (status != INIT_STATE &&
; 868  :         status != EXTRA_STATE &&
; 869  :         status != NAME_STATE &&
; 870  :         status != COMMENT_STATE &&
; 871  :         status != HCRC_STATE &&
; 872  :         status != BUSY_STATE &&
; 873  :         status != FINISH_STATE) {

  00029	83 7d fc 2a	 cmp	 DWORD PTR _status$[ebp], 42 ; 0000002aH
  0002d	74 31		 je	 SHORT $LN5@deflateEnd
  0002f	83 7d fc 45	 cmp	 DWORD PTR _status$[ebp], 69 ; 00000045H
  00033	74 2b		 je	 SHORT $LN5@deflateEnd
  00035	83 7d fc 49	 cmp	 DWORD PTR _status$[ebp], 73 ; 00000049H
  00039	74 25		 je	 SHORT $LN5@deflateEnd
  0003b	83 7d fc 5b	 cmp	 DWORD PTR _status$[ebp], 91 ; 0000005bH
  0003f	74 1f		 je	 SHORT $LN5@deflateEnd
  00041	83 7d fc 67	 cmp	 DWORD PTR _status$[ebp], 103 ; 00000067H
  00045	74 19		 je	 SHORT $LN5@deflateEnd
  00047	83 7d fc 71	 cmp	 DWORD PTR _status$[ebp], 113 ; 00000071H
  0004b	74 13		 je	 SHORT $LN5@deflateEnd
  0004d	81 7d fc 9a 02
	00 00		 cmp	 DWORD PTR _status$[ebp], 666 ; 0000029aH
  00054	74 0a		 je	 SHORT $LN5@deflateEnd

; 874  :       return Z_STREAM_ERROR;

  00056	b8 fe ff ff ff	 mov	 eax, -2			; fffffffeH
  0005b	e9 d2 00 00 00	 jmp	 $LN8@deflateEnd
$LN5@deflateEnd:

; 875  :     }
; 876  : 
; 877  :     /* Deallocate in reverse order of allocations: */
; 878  :     TRY_FREE(strm, strm->state->pending_buf);

  00060	8b 4d 08	 mov	 ecx, DWORD PTR _strm$[ebp]
  00063	8b 51 1c	 mov	 edx, DWORD PTR [ecx+28]
  00066	83 7a 08 00	 cmp	 DWORD PTR [edx+8], 0
  0006a	74 1c		 je	 SHORT $LN4@deflateEnd
  0006c	8b 45 08	 mov	 eax, DWORD PTR _strm$[ebp]
  0006f	8b 48 1c	 mov	 ecx, DWORD PTR [eax+28]
  00072	8b 51 08	 mov	 edx, DWORD PTR [ecx+8]
  00075	52		 push	 edx
  00076	8b 45 08	 mov	 eax, DWORD PTR _strm$[ebp]
  00079	8b 48 28	 mov	 ecx, DWORD PTR [eax+40]
  0007c	51		 push	 ecx
  0007d	8b 55 08	 mov	 edx, DWORD PTR _strm$[ebp]
  00080	8b 42 24	 mov	 eax, DWORD PTR [edx+36]
  00083	ff d0		 call	 eax
  00085	83 c4 08	 add	 esp, 8
$LN4@deflateEnd:

; 879  :     TRY_FREE(strm, strm->state->head);

  00088	8b 4d 08	 mov	 ecx, DWORD PTR _strm$[ebp]
  0008b	8b 51 1c	 mov	 edx, DWORD PTR [ecx+28]
  0008e	83 7a 44 00	 cmp	 DWORD PTR [edx+68], 0
  00092	74 1c		 je	 SHORT $LN3@deflateEnd
  00094	8b 45 08	 mov	 eax, DWORD PTR _strm$[ebp]
  00097	8b 48 1c	 mov	 ecx, DWORD PTR [eax+28]
  0009a	8b 51 44	 mov	 edx, DWORD PTR [ecx+68]
  0009d	52		 push	 edx
  0009e	8b 45 08	 mov	 eax, DWORD PTR _strm$[ebp]
  000a1	8b 48 28	 mov	 ecx, DWORD PTR [eax+40]
  000a4	51		 push	 ecx
  000a5	8b 55 08	 mov	 edx, DWORD PTR _strm$[ebp]
  000a8	8b 42 24	 mov	 eax, DWORD PTR [edx+36]
  000ab	ff d0		 call	 eax
  000ad	83 c4 08	 add	 esp, 8
$LN3@deflateEnd:

; 880  :     TRY_FREE(strm, strm->state->prev);

  000b0	8b 4d 08	 mov	 ecx, DWORD PTR _strm$[ebp]
  000b3	8b 51 1c	 mov	 edx, DWORD PTR [ecx+28]
  000b6	83 7a 40 00	 cmp	 DWORD PTR [edx+64], 0
  000ba	74 1c		 je	 SHORT $LN2@deflateEnd
  000bc	8b 45 08	 mov	 eax, DWORD PTR _strm$[ebp]
  000bf	8b 48 1c	 mov	 ecx, DWORD PTR [eax+28]
  000c2	8b 51 40	 mov	 edx, DWORD PTR [ecx+64]
  000c5	52		 push	 edx
  000c6	8b 45 08	 mov	 eax, DWORD PTR _strm$[ebp]
  000c9	8b 48 28	 mov	 ecx, DWORD PTR [eax+40]
  000cc	51		 push	 ecx
  000cd	8b 55 08	 mov	 edx, DWORD PTR _strm$[ebp]
  000d0	8b 42 24	 mov	 eax, DWORD PTR [edx+36]
  000d3	ff d0		 call	 eax
  000d5	83 c4 08	 add	 esp, 8
$LN2@deflateEnd:

; 881  :     TRY_FREE(strm, strm->state->window);

  000d8	8b 4d 08	 mov	 ecx, DWORD PTR _strm$[ebp]
  000db	8b 51 1c	 mov	 edx, DWORD PTR [ecx+28]
  000de	83 7a 38 00	 cmp	 DWORD PTR [edx+56], 0
  000e2	74 1c		 je	 SHORT $LN1@deflateEnd
  000e4	8b 45 08	 mov	 eax, DWORD PTR _strm$[ebp]
  000e7	8b 48 1c	 mov	 ecx, DWORD PTR [eax+28]
  000ea	8b 51 38	 mov	 edx, DWORD PTR [ecx+56]
  000ed	52		 push	 edx
  000ee	8b 45 08	 mov	 eax, DWORD PTR _strm$[ebp]
  000f1	8b 48 28	 mov	 ecx, DWORD PTR [eax+40]
  000f4	51		 push	 ecx
  000f5	8b 55 08	 mov	 edx, DWORD PTR _strm$[ebp]
  000f8	8b 42 24	 mov	 eax, DWORD PTR [edx+36]
  000fb	ff d0		 call	 eax
  000fd	83 c4 08	 add	 esp, 8
$LN1@deflateEnd:

; 882  : 
; 883  :     ZFREE(strm, strm->state);

  00100	8b 4d 08	 mov	 ecx, DWORD PTR _strm$[ebp]
  00103	8b 51 1c	 mov	 edx, DWORD PTR [ecx+28]
  00106	52		 push	 edx
  00107	8b 45 08	 mov	 eax, DWORD PTR _strm$[ebp]
  0010a	8b 48 28	 mov	 ecx, DWORD PTR [eax+40]
  0010d	51		 push	 ecx
  0010e	8b 55 08	 mov	 edx, DWORD PTR _strm$[ebp]
  00111	8b 42 24	 mov	 eax, DWORD PTR [edx+36]
  00114	ff d0		 call	 eax
  00116	83 c4 08	 add	 esp, 8

; 884  :     strm->state = Z_NULL;

  00119	8b 4d 08	 mov	 ecx, DWORD PTR _strm$[ebp]
  0011c	c7 41 1c 00 00
	00 00		 mov	 DWORD PTR [ecx+28], 0

; 885  : 
; 886  :     return status == BUSY_STATE ? Z_DATA_ERROR : Z_OK;

  00123	33 c0		 xor	 eax, eax
  00125	83 7d fc 71	 cmp	 DWORD PTR _status$[ebp], 113 ; 00000071H
  00129	0f 95 c0	 setne	 al
  0012c	83 e8 01	 sub	 eax, 1
  0012f	83 e0 fd	 and	 eax, -3			; fffffffdH
$LN8@deflateEnd:

; 887  : }

  00132	8b e5		 mov	 esp, ebp
  00134	5d		 pop	 ebp
  00135	c2 04 00	 ret	 4
_deflateEnd@4 ENDP
; Function compile flags: /Odtp
_TEXT	ENDS
;	COMDAT _flush_pending
_TEXT	SEGMENT
_len$ = -4						; size = 4
_strm$ = 8						; size = 4
_flush_pending PROC					; COMDAT

; 534  : {

  00000	55		 push	 ebp
  00001	8b ec		 mov	 ebp, esp
  00003	51		 push	 ecx

; 535  :     unsigned len = strm->state->pending;

  00004	8b 45 08	 mov	 eax, DWORD PTR _strm$[ebp]
  00007	8b 48 1c	 mov	 ecx, DWORD PTR [eax+28]
  0000a	8b 51 14	 mov	 edx, DWORD PTR [ecx+20]
  0000d	89 55 fc	 mov	 DWORD PTR _len$[ebp], edx

; 536  : 
; 537  :     if (len > strm->avail_out) len = strm->avail_out;

  00010	8b 45 08	 mov	 eax, DWORD PTR _strm$[ebp]
  00013	8b 4d fc	 mov	 ecx, DWORD PTR _len$[ebp]
  00016	3b 48 10	 cmp	 ecx, DWORD PTR [eax+16]
  00019	76 09		 jbe	 SHORT $LN3@flush_pend
  0001b	8b 55 08	 mov	 edx, DWORD PTR _strm$[ebp]
  0001e	8b 42 10	 mov	 eax, DWORD PTR [edx+16]
  00021	89 45 fc	 mov	 DWORD PTR _len$[ebp], eax
$LN3@flush_pend:

; 538  :     if (len == 0) return;

  00024	83 7d fc 00	 cmp	 DWORD PTR _len$[ebp], 0
  00028	75 05		 jne	 SHORT $LN2@flush_pend
  0002a	e9 92 00 00 00	 jmp	 $LN4@flush_pend
$LN2@flush_pend:

; 539  : 
; 540  :     zmemcpy(strm->next_out, strm->state->pending_out, len);

  0002f	8b 4d fc	 mov	 ecx, DWORD PTR _len$[ebp]
  00032	51		 push	 ecx
  00033	8b 55 08	 mov	 edx, DWORD PTR _strm$[ebp]
  00036	8b 42 1c	 mov	 eax, DWORD PTR [edx+28]
  00039	8b 48 10	 mov	 ecx, DWORD PTR [eax+16]
  0003c	51		 push	 ecx
  0003d	8b 55 08	 mov	 edx, DWORD PTR _strm$[ebp]
  00040	8b 42 0c	 mov	 eax, DWORD PTR [edx+12]
  00043	50		 push	 eax
  00044	e8 00 00 00 00	 call	 _memcpy
  00049	83 c4 0c	 add	 esp, 12			; 0000000cH

; 541  :     strm->next_out  += len;

  0004c	8b 4d 08	 mov	 ecx, DWORD PTR _strm$[ebp]
  0004f	8b 51 0c	 mov	 edx, DWORD PTR [ecx+12]
  00052	03 55 fc	 add	 edx, DWORD PTR _len$[ebp]
  00055	8b 45 08	 mov	 eax, DWORD PTR _strm$[ebp]
  00058	89 50 0c	 mov	 DWORD PTR [eax+12], edx

; 542  :     strm->state->pending_out  += len;

  0005b	8b 4d 08	 mov	 ecx, DWORD PTR _strm$[ebp]
  0005e	8b 51 1c	 mov	 edx, DWORD PTR [ecx+28]
  00061	8b 42 10	 mov	 eax, DWORD PTR [edx+16]
  00064	03 45 fc	 add	 eax, DWORD PTR _len$[ebp]
  00067	8b 4d 08	 mov	 ecx, DWORD PTR _strm$[ebp]
  0006a	8b 51 1c	 mov	 edx, DWORD PTR [ecx+28]
  0006d	89 42 10	 mov	 DWORD PTR [edx+16], eax

; 543  :     strm->total_out += len;

  00070	8b 45 08	 mov	 eax, DWORD PTR _strm$[ebp]
  00073	8b 48 14	 mov	 ecx, DWORD PTR [eax+20]
  00076	03 4d fc	 add	 ecx, DWORD PTR _len$[ebp]
  00079	8b 55 08	 mov	 edx, DWORD PTR _strm$[ebp]
  0007c	89 4a 14	 mov	 DWORD PTR [edx+20], ecx

; 544  :     strm->avail_out  -= len;

  0007f	8b 45 08	 mov	 eax, DWORD PTR _strm$[ebp]
  00082	8b 48 10	 mov	 ecx, DWORD PTR [eax+16]
  00085	2b 4d fc	 sub	 ecx, DWORD PTR _len$[ebp]
  00088	8b 55 08	 mov	 edx, DWORD PTR _strm$[ebp]
  0008b	89 4a 10	 mov	 DWORD PTR [edx+16], ecx

; 545  :     strm->state->pending -= len;

  0008e	8b 45 08	 mov	 eax, DWORD PTR _strm$[ebp]
  00091	8b 48 1c	 mov	 ecx, DWORD PTR [eax+28]
  00094	8b 51 14	 mov	 edx, DWORD PTR [ecx+20]
  00097	2b 55 fc	 sub	 edx, DWORD PTR _len$[ebp]
  0009a	8b 45 08	 mov	 eax, DWORD PTR _strm$[ebp]
  0009d	8b 48 1c	 mov	 ecx, DWORD PTR [eax+28]
  000a0	89 51 14	 mov	 DWORD PTR [ecx+20], edx

; 546  :     if (strm->state->pending == 0) {

  000a3	8b 55 08	 mov	 edx, DWORD PTR _strm$[ebp]
  000a6	8b 42 1c	 mov	 eax, DWORD PTR [edx+28]
  000a9	83 78 14 00	 cmp	 DWORD PTR [eax+20], 0
  000ad	75 12		 jne	 SHORT $LN4@flush_pend

; 547  :         strm->state->pending_out = strm->state->pending_buf;

  000af	8b 4d 08	 mov	 ecx, DWORD PTR _strm$[ebp]
  000b2	8b 51 1c	 mov	 edx, DWORD PTR [ecx+28]
  000b5	8b 45 08	 mov	 eax, DWORD PTR _strm$[ebp]
  000b8	8b 48 1c	 mov	 ecx, DWORD PTR [eax+28]
  000bb	8b 52 08	 mov	 edx, DWORD PTR [edx+8]
  000be	89 51 10	 mov	 DWORD PTR [ecx+16], edx
$LN4@flush_pend:

; 548  :     }
; 549  : }

  000c1	8b e5		 mov	 esp, ebp
  000c3	5d		 pop	 ebp
  000c4	c3		 ret	 0
_flush_pending ENDP
; Function compile flags: /Odtp
_TEXT	ENDS
;	COMDAT _putShortMSB
_TEXT	SEGMENT
_s$ = 8							; size = 4
_b$ = 12						; size = 4
_putShortMSB PROC					; COMDAT

; 521  : {

  00000	55		 push	 ebp
  00001	8b ec		 mov	 ebp, esp

; 522  :     put_byte(s, (Byte)(b >> 8));

  00003	8b 45 0c	 mov	 eax, DWORD PTR _b$[ebp]
  00006	c1 e8 08	 shr	 eax, 8
  00009	8b 4d 08	 mov	 ecx, DWORD PTR _s$[ebp]
  0000c	8b 51 08	 mov	 edx, DWORD PTR [ecx+8]
  0000f	8b 4d 08	 mov	 ecx, DWORD PTR _s$[ebp]
  00012	8b 49 14	 mov	 ecx, DWORD PTR [ecx+20]
  00015	88 04 0a	 mov	 BYTE PTR [edx+ecx], al
  00018	8b 55 08	 mov	 edx, DWORD PTR _s$[ebp]
  0001b	8b 42 14	 mov	 eax, DWORD PTR [edx+20]
  0001e	83 c0 01	 add	 eax, 1
  00021	8b 4d 08	 mov	 ecx, DWORD PTR _s$[ebp]
  00024	89 41 14	 mov	 DWORD PTR [ecx+20], eax

; 523  :     put_byte(s, (Byte)(b & 0xff));

  00027	8b 55 0c	 mov	 edx, DWORD PTR _b$[ebp]
  0002a	81 e2 ff 00 00
	00		 and	 edx, 255		; 000000ffH
  00030	8b 45 08	 mov	 eax, DWORD PTR _s$[ebp]
  00033	8b 48 08	 mov	 ecx, DWORD PTR [eax+8]
  00036	8b 45 08	 mov	 eax, DWORD PTR _s$[ebp]
  00039	8b 40 14	 mov	 eax, DWORD PTR [eax+20]
  0003c	88 14 01	 mov	 BYTE PTR [ecx+eax], dl
  0003f	8b 4d 08	 mov	 ecx, DWORD PTR _s$[ebp]
  00042	8b 51 14	 mov	 edx, DWORD PTR [ecx+20]
  00045	83 c2 01	 add	 edx, 1
  00048	8b 45 08	 mov	 eax, DWORD PTR _s$[ebp]
  0004b	89 50 14	 mov	 DWORD PTR [eax+20], edx

; 524  : }

  0004e	5d		 pop	 ebp
  0004f	c3		 ret	 0
_putShortMSB ENDP
_TEXT	ENDS
PUBLIC	_deflatePrime@12
; Function compile flags: /Odtp
;	COMDAT _deflatePrime@12
_TEXT	SEGMENT
_strm$ = 8						; size = 4
_bits$ = 12						; size = 4
_value$ = 16						; size = 4
_deflatePrime@12 PROC					; COMDAT

; 408  : {

  00000	55		 push	 ebp
  00001	8b ec		 mov	 ebp, esp

; 409  :     if (strm == Z_NULL || strm->state == Z_NULL) return Z_STREAM_ERROR;

  00003	83 7d 08 00	 cmp	 DWORD PTR _strm$[ebp], 0
  00007	74 09		 je	 SHORT $LN1@deflatePri
  00009	8b 45 08	 mov	 eax, DWORD PTR _strm$[ebp]
  0000c	83 78 1c 00	 cmp	 DWORD PTR [eax+28], 0
  00010	75 07		 jne	 SHORT $LN2@deflatePri
$LN1@deflatePri:
  00012	b8 fe ff ff ff	 mov	 eax, -2			; fffffffeH
  00017	eb 2e		 jmp	 SHORT $LN3@deflatePri
$LN2@deflatePri:

; 410  :     strm->state->bi_valid = bits;

  00019	8b 4d 08	 mov	 ecx, DWORD PTR _strm$[ebp]
  0001c	8b 51 1c	 mov	 edx, DWORD PTR [ecx+28]
  0001f	8b 45 0c	 mov	 eax, DWORD PTR _bits$[ebp]
  00022	89 82 bc 16 00
	00		 mov	 DWORD PTR [edx+5820], eax

; 411  :     strm->state->bi_buf = (ush)(value & ((1 << bits) - 1));

  00028	ba 01 00 00 00	 mov	 edx, 1
  0002d	8b 4d 0c	 mov	 ecx, DWORD PTR _bits$[ebp]
  00030	d3 e2		 shl	 edx, cl
  00032	83 ea 01	 sub	 edx, 1
  00035	23 55 10	 and	 edx, DWORD PTR _value$[ebp]
  00038	8b 45 08	 mov	 eax, DWORD PTR _strm$[ebp]
  0003b	8b 48 1c	 mov	 ecx, DWORD PTR [eax+28]
  0003e	66 89 91 b8 16
	00 00		 mov	 WORD PTR [ecx+5816], dx

; 412  :     return Z_OK;

  00045	33 c0		 xor	 eax, eax
$LN3@deflatePri:

; 413  : }

  00047	5d		 pop	 ebp
  00048	c2 0c 00	 ret	 12			; 0000000cH
_deflatePrime@12 ENDP
; Function compile flags: /Odtp
;	COMDAT _read_buf
_TEXT	SEGMENT
_len$ = -4						; size = 4
_strm$ = 8						; size = 4
_buf$ = 12						; size = 4
_size$ = 16						; size = 4
_read_buf PROC						; COMDAT

; 960  : {

  00000	55		 push	 ebp
  00001	8b ec		 mov	 ebp, esp
  00003	51		 push	 ecx

; 961  :     unsigned len = strm->avail_in;

  00004	8b 45 08	 mov	 eax, DWORD PTR _strm$[ebp]
  00007	8b 48 04	 mov	 ecx, DWORD PTR [eax+4]
  0000a	89 4d fc	 mov	 DWORD PTR _len$[ebp], ecx

; 962  : 
; 963  :     if (len > size) len = size;

  0000d	8b 55 fc	 mov	 edx, DWORD PTR _len$[ebp]
  00010	3b 55 10	 cmp	 edx, DWORD PTR _size$[ebp]
  00013	76 06		 jbe	 SHORT $LN5@read_buf
  00015	8b 45 10	 mov	 eax, DWORD PTR _size$[ebp]
  00018	89 45 fc	 mov	 DWORD PTR _len$[ebp], eax
$LN5@read_buf:

; 964  :     if (len == 0) return 0;

  0001b	83 7d fc 00	 cmp	 DWORD PTR _len$[ebp], 0
  0001f	75 07		 jne	 SHORT $LN4@read_buf
  00021	33 c0		 xor	 eax, eax
  00023	e9 96 00 00 00	 jmp	 $LN6@read_buf
$LN4@read_buf:

; 965  : 
; 966  :     strm->avail_in  -= len;

  00028	8b 4d 08	 mov	 ecx, DWORD PTR _strm$[ebp]
  0002b	8b 51 04	 mov	 edx, DWORD PTR [ecx+4]
  0002e	2b 55 fc	 sub	 edx, DWORD PTR _len$[ebp]
  00031	8b 45 08	 mov	 eax, DWORD PTR _strm$[ebp]
  00034	89 50 04	 mov	 DWORD PTR [eax+4], edx

; 967  : 
; 968  :     if (strm->state->wrap == 1) {

  00037	8b 4d 08	 mov	 ecx, DWORD PTR _strm$[ebp]
  0003a	8b 51 1c	 mov	 edx, DWORD PTR [ecx+28]
  0003d	83 7a 18 01	 cmp	 DWORD PTR [edx+24], 1
  00041	75 1e		 jne	 SHORT $LN3@read_buf

; 969  :         strm->adler = adler32(strm->adler, strm->next_in, len);

  00043	8b 45 fc	 mov	 eax, DWORD PTR _len$[ebp]
  00046	50		 push	 eax
  00047	8b 4d 08	 mov	 ecx, DWORD PTR _strm$[ebp]
  0004a	8b 11		 mov	 edx, DWORD PTR [ecx]
  0004c	52		 push	 edx
  0004d	8b 45 08	 mov	 eax, DWORD PTR _strm$[ebp]
  00050	8b 48 30	 mov	 ecx, DWORD PTR [eax+48]
  00053	51		 push	 ecx
  00054	e8 00 00 00 00	 call	 _adler32@12
  00059	8b 55 08	 mov	 edx, DWORD PTR _strm$[ebp]
  0005c	89 42 30	 mov	 DWORD PTR [edx+48], eax
  0005f	eb 28		 jmp	 SHORT $LN2@read_buf
$LN3@read_buf:

; 970  :     }
; 971  : #ifdef GZIP
; 972  :     else if (strm->state->wrap == 2) {

  00061	8b 45 08	 mov	 eax, DWORD PTR _strm$[ebp]
  00064	8b 48 1c	 mov	 ecx, DWORD PTR [eax+28]
  00067	83 79 18 02	 cmp	 DWORD PTR [ecx+24], 2
  0006b	75 1c		 jne	 SHORT $LN2@read_buf

; 973  :         strm->adler = crc32(strm->adler, strm->next_in, len);

  0006d	8b 55 fc	 mov	 edx, DWORD PTR _len$[ebp]
  00070	52		 push	 edx
  00071	8b 45 08	 mov	 eax, DWORD PTR _strm$[ebp]
  00074	8b 08		 mov	 ecx, DWORD PTR [eax]
  00076	51		 push	 ecx
  00077	8b 55 08	 mov	 edx, DWORD PTR _strm$[ebp]
  0007a	8b 42 30	 mov	 eax, DWORD PTR [edx+48]
  0007d	50		 push	 eax
  0007e	e8 00 00 00 00	 call	 _crc32@12
  00083	8b 4d 08	 mov	 ecx, DWORD PTR _strm$[ebp]
  00086	89 41 30	 mov	 DWORD PTR [ecx+48], eax
$LN2@read_buf:

; 974  :     }
; 975  : #endif
; 976  :     zmemcpy(buf, strm->next_in, len);

  00089	8b 55 fc	 mov	 edx, DWORD PTR _len$[ebp]
  0008c	52		 push	 edx
  0008d	8b 45 08	 mov	 eax, DWORD PTR _strm$[ebp]
  00090	8b 08		 mov	 ecx, DWORD PTR [eax]
  00092	51		 push	 ecx
  00093	8b 55 0c	 mov	 edx, DWORD PTR _buf$[ebp]
  00096	52		 push	 edx
  00097	e8 00 00 00 00	 call	 _memcpy
  0009c	83 c4 0c	 add	 esp, 12			; 0000000cH

; 977  :     strm->next_in  += len;

  0009f	8b 45 08	 mov	 eax, DWORD PTR _strm$[ebp]
  000a2	8b 08		 mov	 ecx, DWORD PTR [eax]
  000a4	03 4d fc	 add	 ecx, DWORD PTR _len$[ebp]
  000a7	8b 55 08	 mov	 edx, DWORD PTR _strm$[ebp]
  000aa	89 0a		 mov	 DWORD PTR [edx], ecx

; 978  :     strm->total_in += len;

  000ac	8b 45 08	 mov	 eax, DWORD PTR _strm$[ebp]
  000af	8b 48 08	 mov	 ecx, DWORD PTR [eax+8]
  000b2	03 4d fc	 add	 ecx, DWORD PTR _len$[ebp]
  000b5	8b 55 08	 mov	 edx, DWORD PTR _strm$[ebp]
  000b8	89 4a 08	 mov	 DWORD PTR [edx+8], ecx

; 979  : 
; 980  :     return (int)len;

  000bb	8b 45 fc	 mov	 eax, DWORD PTR _len$[ebp]
$LN6@read_buf:

; 981  : }

  000be	8b e5		 mov	 esp, ebp
  000c0	5d		 pop	 ebp
  000c1	c3		 ret	 0
_read_buf ENDP
_TEXT	ENDS
PUBLIC	_deflateCopy@8
; Function compile flags: /Odtp
;	COMDAT _deflateCopy@8
_TEXT	SEGMENT
_ss$ = -12						; size = 4
_ds$ = -8						; size = 4
_overlay$ = -4						; size = 4
_dest$ = 8						; size = 4
_source$ = 12						; size = 4
_deflateCopy@8 PROC					; COMDAT

; 897  : {

  00000	55		 push	 ebp
  00001	8b ec		 mov	 ebp, esp
  00003	83 ec 0c	 sub	 esp, 12			; 0000000cH

; 898  : #ifdef MAXSEG_64K
; 899  :     return Z_STREAM_ERROR;
; 900  : #else
; 901  :     deflate_state *ds;
; 902  :     deflate_state *ss;
; 903  :     ushf *overlay;
; 904  : 
; 905  : 
; 906  :     if (source == Z_NULL || dest == Z_NULL || source->state == Z_NULL) {

  00006	83 7d 0c 00	 cmp	 DWORD PTR _source$[ebp], 0
  0000a	74 0f		 je	 SHORT $LN4@deflateCop
  0000c	83 7d 08 00	 cmp	 DWORD PTR _dest$[ebp], 0
  00010	74 09		 je	 SHORT $LN4@deflateCop
  00012	8b 45 0c	 mov	 eax, DWORD PTR _source$[ebp]
  00015	83 78 1c 00	 cmp	 DWORD PTR [eax+28], 0
  00019	75 0a		 jne	 SHORT $LN5@deflateCop
$LN4@deflateCop:

; 907  :         return Z_STREAM_ERROR;

  0001b	b8 fe ff ff ff	 mov	 eax, -2			; fffffffeH
  00020	e9 2f 02 00 00	 jmp	 $LN6@deflateCop
$LN5@deflateCop:

; 908  :     }
; 909  : 
; 910  :     ss = source->state;

  00025	8b 4d 0c	 mov	 ecx, DWORD PTR _source$[ebp]
  00028	8b 51 1c	 mov	 edx, DWORD PTR [ecx+28]
  0002b	89 55 f4	 mov	 DWORD PTR _ss$[ebp], edx

; 911  : 
; 912  :     zmemcpy(dest, source, sizeof(z_stream));

  0002e	6a 38		 push	 56			; 00000038H
  00030	8b 45 0c	 mov	 eax, DWORD PTR _source$[ebp]
  00033	50		 push	 eax
  00034	8b 4d 08	 mov	 ecx, DWORD PTR _dest$[ebp]
  00037	51		 push	 ecx
  00038	e8 00 00 00 00	 call	 _memcpy
  0003d	83 c4 0c	 add	 esp, 12			; 0000000cH

; 913  : 
; 914  :     ds = (deflate_state *) ZALLOC(dest, 1, sizeof(deflate_state));

  00040	68 c0 16 00 00	 push	 5824			; 000016c0H
  00045	6a 01		 push	 1
  00047	8b 55 08	 mov	 edx, DWORD PTR _dest$[ebp]
  0004a	8b 42 28	 mov	 eax, DWORD PTR [edx+40]
  0004d	50		 push	 eax
  0004e	8b 4d 08	 mov	 ecx, DWORD PTR _dest$[ebp]
  00051	8b 51 20	 mov	 edx, DWORD PTR [ecx+32]
  00054	ff d2		 call	 edx
  00056	83 c4 0c	 add	 esp, 12			; 0000000cH
  00059	89 45 f8	 mov	 DWORD PTR _ds$[ebp], eax

; 915  :     if (ds == Z_NULL) return Z_MEM_ERROR;

  0005c	83 7d f8 00	 cmp	 DWORD PTR _ds$[ebp], 0
  00060	75 0a		 jne	 SHORT $LN3@deflateCop
  00062	b8 fc ff ff ff	 mov	 eax, -4			; fffffffcH
  00067	e9 e8 01 00 00	 jmp	 $LN6@deflateCop
$LN3@deflateCop:

; 916  :     dest->state = (struct internal_state FAR *) ds;

  0006c	8b 45 08	 mov	 eax, DWORD PTR _dest$[ebp]
  0006f	8b 4d f8	 mov	 ecx, DWORD PTR _ds$[ebp]
  00072	89 48 1c	 mov	 DWORD PTR [eax+28], ecx

; 917  :     zmemcpy(ds, ss, sizeof(deflate_state));

  00075	68 c0 16 00 00	 push	 5824			; 000016c0H
  0007a	8b 55 f4	 mov	 edx, DWORD PTR _ss$[ebp]
  0007d	52		 push	 edx
  0007e	8b 45 f8	 mov	 eax, DWORD PTR _ds$[ebp]
  00081	50		 push	 eax
  00082	e8 00 00 00 00	 call	 _memcpy
  00087	83 c4 0c	 add	 esp, 12			; 0000000cH

; 918  :     ds->strm = dest;

  0008a	8b 4d f8	 mov	 ecx, DWORD PTR _ds$[ebp]
  0008d	8b 55 08	 mov	 edx, DWORD PTR _dest$[ebp]
  00090	89 11		 mov	 DWORD PTR [ecx], edx

; 919  : 
; 920  :     ds->window = (Bytef *) ZALLOC(dest, ds->w_size, 2*sizeof(Byte));

  00092	6a 02		 push	 2
  00094	8b 45 f8	 mov	 eax, DWORD PTR _ds$[ebp]
  00097	8b 48 2c	 mov	 ecx, DWORD PTR [eax+44]
  0009a	51		 push	 ecx
  0009b	8b 55 08	 mov	 edx, DWORD PTR _dest$[ebp]
  0009e	8b 42 28	 mov	 eax, DWORD PTR [edx+40]
  000a1	50		 push	 eax
  000a2	8b 4d 08	 mov	 ecx, DWORD PTR _dest$[ebp]
  000a5	8b 51 20	 mov	 edx, DWORD PTR [ecx+32]
  000a8	ff d2		 call	 edx
  000aa	83 c4 0c	 add	 esp, 12			; 0000000cH
  000ad	8b 4d f8	 mov	 ecx, DWORD PTR _ds$[ebp]
  000b0	89 41 38	 mov	 DWORD PTR [ecx+56], eax

; 921  :     ds->prev   = (Posf *)  ZALLOC(dest, ds->w_size, sizeof(Pos));

  000b3	6a 02		 push	 2
  000b5	8b 55 f8	 mov	 edx, DWORD PTR _ds$[ebp]
  000b8	8b 42 2c	 mov	 eax, DWORD PTR [edx+44]
  000bb	50		 push	 eax
  000bc	8b 4d 08	 mov	 ecx, DWORD PTR _dest$[ebp]
  000bf	8b 51 28	 mov	 edx, DWORD PTR [ecx+40]
  000c2	52		 push	 edx
  000c3	8b 45 08	 mov	 eax, DWORD PTR _dest$[ebp]
  000c6	8b 48 20	 mov	 ecx, DWORD PTR [eax+32]
  000c9	ff d1		 call	 ecx
  000cb	83 c4 0c	 add	 esp, 12			; 0000000cH
  000ce	8b 55 f8	 mov	 edx, DWORD PTR _ds$[ebp]
  000d1	89 42 40	 mov	 DWORD PTR [edx+64], eax

; 922  :     ds->head   = (Posf *)  ZALLOC(dest, ds->hash_size, sizeof(Pos));

  000d4	6a 02		 push	 2
  000d6	8b 45 f8	 mov	 eax, DWORD PTR _ds$[ebp]
  000d9	8b 48 4c	 mov	 ecx, DWORD PTR [eax+76]
  000dc	51		 push	 ecx
  000dd	8b 55 08	 mov	 edx, DWORD PTR _dest$[ebp]
  000e0	8b 42 28	 mov	 eax, DWORD PTR [edx+40]
  000e3	50		 push	 eax
  000e4	8b 4d 08	 mov	 ecx, DWORD PTR _dest$[ebp]
  000e7	8b 51 20	 mov	 edx, DWORD PTR [ecx+32]
  000ea	ff d2		 call	 edx
  000ec	83 c4 0c	 add	 esp, 12			; 0000000cH
  000ef	8b 4d f8	 mov	 ecx, DWORD PTR _ds$[ebp]
  000f2	89 41 44	 mov	 DWORD PTR [ecx+68], eax

; 923  :     overlay = (ushf *) ZALLOC(dest, ds->lit_bufsize, sizeof(ush)+2);

  000f5	6a 04		 push	 4
  000f7	8b 55 f8	 mov	 edx, DWORD PTR _ds$[ebp]
  000fa	8b 82 9c 16 00
	00		 mov	 eax, DWORD PTR [edx+5788]
  00100	50		 push	 eax
  00101	8b 4d 08	 mov	 ecx, DWORD PTR _dest$[ebp]
  00104	8b 51 28	 mov	 edx, DWORD PTR [ecx+40]
  00107	52		 push	 edx
  00108	8b 45 08	 mov	 eax, DWORD PTR _dest$[ebp]
  0010b	8b 48 20	 mov	 ecx, DWORD PTR [eax+32]
  0010e	ff d1		 call	 ecx
  00110	83 c4 0c	 add	 esp, 12			; 0000000cH
  00113	89 45 fc	 mov	 DWORD PTR _overlay$[ebp], eax

; 924  :     ds->pending_buf = (uchf *) overlay;

  00116	8b 55 f8	 mov	 edx, DWORD PTR _ds$[ebp]
  00119	8b 45 fc	 mov	 eax, DWORD PTR _overlay$[ebp]
  0011c	89 42 08	 mov	 DWORD PTR [edx+8], eax

; 925  : 
; 926  :     if (ds->window == Z_NULL || ds->prev == Z_NULL || ds->head == Z_NULL ||
; 927  :         ds->pending_buf == Z_NULL) {

  0011f	8b 4d f8	 mov	 ecx, DWORD PTR _ds$[ebp]
  00122	83 79 38 00	 cmp	 DWORD PTR [ecx+56], 0
  00126	74 1b		 je	 SHORT $LN1@deflateCop
  00128	8b 55 f8	 mov	 edx, DWORD PTR _ds$[ebp]
  0012b	83 7a 40 00	 cmp	 DWORD PTR [edx+64], 0
  0012f	74 12		 je	 SHORT $LN1@deflateCop
  00131	8b 45 f8	 mov	 eax, DWORD PTR _ds$[ebp]
  00134	83 78 44 00	 cmp	 DWORD PTR [eax+68], 0
  00138	74 09		 je	 SHORT $LN1@deflateCop
  0013a	8b 4d f8	 mov	 ecx, DWORD PTR _ds$[ebp]
  0013d	83 79 08 00	 cmp	 DWORD PTR [ecx+8], 0
  00141	75 13		 jne	 SHORT $LN2@deflateCop
$LN1@deflateCop:

; 928  :         deflateEnd (dest);

  00143	8b 55 08	 mov	 edx, DWORD PTR _dest$[ebp]
  00146	52		 push	 edx
  00147	e8 00 00 00 00	 call	 _deflateEnd@4

; 929  :         return Z_MEM_ERROR;

  0014c	b8 fc ff ff ff	 mov	 eax, -4			; fffffffcH
  00151	e9 fe 00 00 00	 jmp	 $LN6@deflateCop
$LN2@deflateCop:

; 930  :     }
; 931  :     /* following zmemcpy do not work for 16-bit MSDOS */
; 932  :     zmemcpy(ds->window, ss->window, ds->w_size * 2 * sizeof(Byte));

  00156	8b 45 f8	 mov	 eax, DWORD PTR _ds$[ebp]
  00159	8b 48 2c	 mov	 ecx, DWORD PTR [eax+44]
  0015c	d1 e1		 shl	 ecx, 1
  0015e	51		 push	 ecx
  0015f	8b 55 f4	 mov	 edx, DWORD PTR _ss$[ebp]
  00162	8b 42 38	 mov	 eax, DWORD PTR [edx+56]
  00165	50		 push	 eax
  00166	8b 4d f8	 mov	 ecx, DWORD PTR _ds$[ebp]
  00169	8b 51 38	 mov	 edx, DWORD PTR [ecx+56]
  0016c	52		 push	 edx
  0016d	e8 00 00 00 00	 call	 _memcpy
  00172	83 c4 0c	 add	 esp, 12			; 0000000cH

; 933  :     zmemcpy(ds->prev, ss->prev, ds->w_size * sizeof(Pos));

  00175	8b 45 f8	 mov	 eax, DWORD PTR _ds$[ebp]
  00178	8b 48 2c	 mov	 ecx, DWORD PTR [eax+44]
  0017b	d1 e1		 shl	 ecx, 1
  0017d	51		 push	 ecx
  0017e	8b 55 f4	 mov	 edx, DWORD PTR _ss$[ebp]
  00181	8b 42 40	 mov	 eax, DWORD PTR [edx+64]
  00184	50		 push	 eax
  00185	8b 4d f8	 mov	 ecx, DWORD PTR _ds$[ebp]
  00188	8b 51 40	 mov	 edx, DWORD PTR [ecx+64]
  0018b	52		 push	 edx
  0018c	e8 00 00 00 00	 call	 _memcpy
  00191	83 c4 0c	 add	 esp, 12			; 0000000cH

; 934  :     zmemcpy(ds->head, ss->head, ds->hash_size * sizeof(Pos));

  00194	8b 45 f8	 mov	 eax, DWORD PTR _ds$[ebp]
  00197	8b 48 4c	 mov	 ecx, DWORD PTR [eax+76]
  0019a	d1 e1		 shl	 ecx, 1
  0019c	51		 push	 ecx
  0019d	8b 55 f4	 mov	 edx, DWORD PTR _ss$[ebp]
  001a0	8b 42 44	 mov	 eax, DWORD PTR [edx+68]
  001a3	50		 push	 eax
  001a4	8b 4d f8	 mov	 ecx, DWORD PTR _ds$[ebp]
  001a7	8b 51 44	 mov	 edx, DWORD PTR [ecx+68]
  001aa	52		 push	 edx
  001ab	e8 00 00 00 00	 call	 _memcpy
  001b0	83 c4 0c	 add	 esp, 12			; 0000000cH

; 935  :     zmemcpy(ds->pending_buf, ss->pending_buf, (uInt)ds->pending_buf_size);

  001b3	8b 45 f8	 mov	 eax, DWORD PTR _ds$[ebp]
  001b6	8b 48 0c	 mov	 ecx, DWORD PTR [eax+12]
  001b9	51		 push	 ecx
  001ba	8b 55 f4	 mov	 edx, DWORD PTR _ss$[ebp]
  001bd	8b 42 08	 mov	 eax, DWORD PTR [edx+8]
  001c0	50		 push	 eax
  001c1	8b 4d f8	 mov	 ecx, DWORD PTR _ds$[ebp]
  001c4	8b 51 08	 mov	 edx, DWORD PTR [ecx+8]
  001c7	52		 push	 edx
  001c8	e8 00 00 00 00	 call	 _memcpy
  001cd	83 c4 0c	 add	 esp, 12			; 0000000cH

; 936  : 
; 937  :     ds->pending_out = ds->pending_buf + (ss->pending_out - ss->pending_buf);

  001d0	8b 45 f4	 mov	 eax, DWORD PTR _ss$[ebp]
  001d3	8b 4d f4	 mov	 ecx, DWORD PTR _ss$[ebp]
  001d6	8b 50 10	 mov	 edx, DWORD PTR [eax+16]
  001d9	2b 51 08	 sub	 edx, DWORD PTR [ecx+8]
  001dc	8b 45 f8	 mov	 eax, DWORD PTR _ds$[ebp]
  001df	03 50 08	 add	 edx, DWORD PTR [eax+8]
  001e2	8b 4d f8	 mov	 ecx, DWORD PTR _ds$[ebp]
  001e5	89 51 10	 mov	 DWORD PTR [ecx+16], edx

; 938  :     ds->d_buf = overlay + ds->lit_bufsize/sizeof(ush);

  001e8	8b 55 f8	 mov	 edx, DWORD PTR _ds$[ebp]
  001eb	8b 82 9c 16 00
	00		 mov	 eax, DWORD PTR [edx+5788]
  001f1	d1 e8		 shr	 eax, 1
  001f3	8b 4d fc	 mov	 ecx, DWORD PTR _overlay$[ebp]
  001f6	8d 14 41	 lea	 edx, DWORD PTR [ecx+eax*2]
  001f9	8b 45 f8	 mov	 eax, DWORD PTR _ds$[ebp]
  001fc	89 90 a4 16 00
	00		 mov	 DWORD PTR [eax+5796], edx

; 939  :     ds->l_buf = ds->pending_buf + (1+sizeof(ush))*ds->lit_bufsize;

  00202	8b 4d f8	 mov	 ecx, DWORD PTR _ds$[ebp]
  00205	8b 91 9c 16 00
	00		 mov	 edx, DWORD PTR [ecx+5788]
  0020b	6b d2 03	 imul	 edx, 3
  0020e	8b 45 f8	 mov	 eax, DWORD PTR _ds$[ebp]
  00211	03 50 08	 add	 edx, DWORD PTR [eax+8]
  00214	8b 4d f8	 mov	 ecx, DWORD PTR _ds$[ebp]
  00217	89 91 98 16 00
	00		 mov	 DWORD PTR [ecx+5784], edx

; 940  : 
; 941  :     ds->l_desc.dyn_tree = ds->dyn_ltree;

  0021d	8b 55 f8	 mov	 edx, DWORD PTR _ds$[ebp]
  00220	81 c2 94 00 00
	00		 add	 edx, 148		; 00000094H
  00226	8b 45 f8	 mov	 eax, DWORD PTR _ds$[ebp]
  00229	89 90 18 0b 00
	00		 mov	 DWORD PTR [eax+2840], edx

; 942  :     ds->d_desc.dyn_tree = ds->dyn_dtree;

  0022f	8b 4d f8	 mov	 ecx, DWORD PTR _ds$[ebp]
  00232	81 c1 88 09 00
	00		 add	 ecx, 2440		; 00000988H
  00238	8b 55 f8	 mov	 edx, DWORD PTR _ds$[ebp]
  0023b	89 8a 24 0b 00
	00		 mov	 DWORD PTR [edx+2852], ecx

; 943  :     ds->bl_desc.dyn_tree = ds->bl_tree;

  00241	8b 45 f8	 mov	 eax, DWORD PTR _ds$[ebp]
  00244	05 7c 0a 00 00	 add	 eax, 2684		; 00000a7cH
  00249	8b 4d f8	 mov	 ecx, DWORD PTR _ds$[ebp]
  0024c	89 81 30 0b 00
	00		 mov	 DWORD PTR [ecx+2864], eax

; 944  : 
; 945  :     return Z_OK;

  00252	33 c0		 xor	 eax, eax
$LN6@deflateCop:

; 946  : #endif /* MAXSEG_64K */
; 947  : }

  00254	8b e5		 mov	 esp, ebp
  00256	5d		 pop	 ebp
  00257	c2 08 00	 ret	 8
_deflateCopy@8 ENDP
_TEXT	ENDS
PUBLIC	_deflate@8
; Function compile flags: /Odtp
;	COMDAT _deflate@8
_TEXT	SEGMENT
tv285 = -56						; size = 4
tv286 = -52						; size = 4
tv189 = -48						; size = 4
tv190 = -44						; size = 4
_bstate$77851 = -40					; size = 4
_val$77825 = -36					; size = 4
_beg$77824 = -32					; size = 4
_val$77811 = -28					; size = 4
_beg$77810 = -24					; size = 4
_beg$77797 = -20					; size = 4
_header$77781 = -16					; size = 4
_level_flags$77782 = -12				; size = 4
_old_flush$ = -8					; size = 4
_s$ = -4						; size = 4
_strm$ = 8						; size = 4
_flush$ = 12						; size = 4
_deflate@8 PROC						; COMDAT

; 555  : {

  00000	55		 push	 ebp
  00001	8b ec		 mov	 ebp, esp
  00003	83 ec 38	 sub	 esp, 56			; 00000038H
  00006	56		 push	 esi

; 556  :     int old_flush; /* value of flush param for previous deflate call */
; 557  :     deflate_state *s;
; 558  : 
; 559  :     if (strm == Z_NULL || strm->state == Z_NULL ||
; 560  :         flush > Z_FINISH || flush < 0) {

  00007	83 7d 08 00	 cmp	 DWORD PTR _strm$[ebp], 0
  0000b	74 15		 je	 SHORT $LN80@deflate
  0000d	8b 45 08	 mov	 eax, DWORD PTR _strm$[ebp]
  00010	83 78 1c 00	 cmp	 DWORD PTR [eax+28], 0
  00014	74 0c		 je	 SHORT $LN80@deflate
  00016	83 7d 0c 04	 cmp	 DWORD PTR _flush$[ebp], 4
  0001a	7f 06		 jg	 SHORT $LN80@deflate
  0001c	83 7d 0c 00	 cmp	 DWORD PTR _flush$[ebp], 0
  00020	7d 0a		 jge	 SHORT $LN81@deflate
$LN80@deflate:

; 561  :         return Z_STREAM_ERROR;

  00022	b8 fe ff ff ff	 mov	 eax, -2			; fffffffeH
  00027	e9 01 0e 00 00	 jmp	 $LN82@deflate
$LN81@deflate:

; 562  :     }
; 563  :     s = strm->state;

  0002c	8b 4d 08	 mov	 ecx, DWORD PTR _strm$[ebp]
  0002f	8b 51 1c	 mov	 edx, DWORD PTR [ecx+28]
  00032	89 55 fc	 mov	 DWORD PTR _s$[ebp], edx

; 564  : 
; 565  :     if (strm->next_out == Z_NULL ||
; 566  :         (strm->next_in == Z_NULL && strm->avail_in != 0) ||
; 567  :         (s->status == FINISH_STATE && flush != Z_FINISH)) {

  00035	8b 45 08	 mov	 eax, DWORD PTR _strm$[ebp]
  00038	83 78 0c 00	 cmp	 DWORD PTR [eax+12], 0
  0003c	74 23		 je	 SHORT $LN78@deflate
  0003e	8b 4d 08	 mov	 ecx, DWORD PTR _strm$[ebp]
  00041	83 39 00	 cmp	 DWORD PTR [ecx], 0
  00044	75 09		 jne	 SHORT $LN77@deflate
  00046	8b 55 08	 mov	 edx, DWORD PTR _strm$[ebp]
  00049	83 7a 04 00	 cmp	 DWORD PTR [edx+4], 0
  0004d	75 12		 jne	 SHORT $LN78@deflate
$LN77@deflate:
  0004f	8b 45 fc	 mov	 eax, DWORD PTR _s$[ebp]
  00052	81 78 04 9a 02
	00 00		 cmp	 DWORD PTR [eax+4], 666	; 0000029aH
  00059	75 1c		 jne	 SHORT $LN79@deflate
  0005b	83 7d 0c 04	 cmp	 DWORD PTR _flush$[ebp], 4
  0005f	74 16		 je	 SHORT $LN79@deflate
$LN78@deflate:

; 568  :         ERR_RETURN(strm, Z_STREAM_ERROR);

  00061	8b 4d 08	 mov	 ecx, DWORD PTR _strm$[ebp]
  00064	8b 15 10 00 00
	00		 mov	 edx, DWORD PTR _z_errmsg+16
  0006a	89 51 18	 mov	 DWORD PTR [ecx+24], edx
  0006d	b8 fe ff ff ff	 mov	 eax, -2			; fffffffeH
  00072	e9 b6 0d 00 00	 jmp	 $LN82@deflate
$LN79@deflate:

; 569  :     }
; 570  :     if (strm->avail_out == 0) ERR_RETURN(strm, Z_BUF_ERROR);

  00077	8b 45 08	 mov	 eax, DWORD PTR _strm$[ebp]
  0007a	83 78 10 00	 cmp	 DWORD PTR [eax+16], 0
  0007e	75 16		 jne	 SHORT $LN76@deflate
  00080	8b 4d 08	 mov	 ecx, DWORD PTR _strm$[ebp]
  00083	8b 15 1c 00 00
	00		 mov	 edx, DWORD PTR _z_errmsg+28
  00089	89 51 18	 mov	 DWORD PTR [ecx+24], edx
  0008c	b8 fb ff ff ff	 mov	 eax, -5			; fffffffbH
  00091	e9 97 0d 00 00	 jmp	 $LN82@deflate
$LN76@deflate:

; 571  : 
; 572  :     s->strm = strm; /* just in case */

  00096	8b 45 fc	 mov	 eax, DWORD PTR _s$[ebp]
  00099	8b 4d 08	 mov	 ecx, DWORD PTR _strm$[ebp]
  0009c	89 08		 mov	 DWORD PTR [eax], ecx

; 573  :     old_flush = s->last_flush;

  0009e	8b 55 fc	 mov	 edx, DWORD PTR _s$[ebp]
  000a1	8b 42 28	 mov	 eax, DWORD PTR [edx+40]
  000a4	89 45 f8	 mov	 DWORD PTR _old_flush$[ebp], eax

; 574  :     s->last_flush = flush;

  000a7	8b 4d fc	 mov	 ecx, DWORD PTR _s$[ebp]
  000aa	8b 55 0c	 mov	 edx, DWORD PTR _flush$[ebp]
  000ad	89 51 28	 mov	 DWORD PTR [ecx+40], edx

; 575  : 
; 576  :     /* Write the header */
; 577  :     if (s->status == INIT_STATE) {

  000b0	8b 45 fc	 mov	 eax, DWORD PTR _s$[ebp]
  000b3	83 78 04 2a	 cmp	 DWORD PTR [eax+4], 42	; 0000002aH
  000b7	0f 85 22 05 00
	00		 jne	 $LN75@deflate

; 578  : #ifdef GZIP
; 579  :         if (s->wrap == 2) {

  000bd	8b 4d fc	 mov	 ecx, DWORD PTR _s$[ebp]
  000c0	83 79 18 02	 cmp	 DWORD PTR [ecx+24], 2
  000c4	0f 85 15 04 00
	00		 jne	 $LN74@deflate

; 580  :             strm->adler = crc32(0L, Z_NULL, 0);

  000ca	6a 00		 push	 0
  000cc	6a 00		 push	 0
  000ce	6a 00		 push	 0
  000d0	e8 00 00 00 00	 call	 _crc32@12
  000d5	8b 55 08	 mov	 edx, DWORD PTR _strm$[ebp]
  000d8	89 42 30	 mov	 DWORD PTR [edx+48], eax

; 581  :             put_byte(s, 31);

  000db	8b 45 fc	 mov	 eax, DWORD PTR _s$[ebp]
  000de	8b 48 08	 mov	 ecx, DWORD PTR [eax+8]
  000e1	8b 55 fc	 mov	 edx, DWORD PTR _s$[ebp]
  000e4	8b 42 14	 mov	 eax, DWORD PTR [edx+20]
  000e7	c6 04 01 1f	 mov	 BYTE PTR [ecx+eax], 31	; 0000001fH
  000eb	8b 4d fc	 mov	 ecx, DWORD PTR _s$[ebp]
  000ee	8b 51 14	 mov	 edx, DWORD PTR [ecx+20]
  000f1	83 c2 01	 add	 edx, 1
  000f4	8b 45 fc	 mov	 eax, DWORD PTR _s$[ebp]
  000f7	89 50 14	 mov	 DWORD PTR [eax+20], edx

; 582  :             put_byte(s, 139);

  000fa	8b 4d fc	 mov	 ecx, DWORD PTR _s$[ebp]
  000fd	8b 51 08	 mov	 edx, DWORD PTR [ecx+8]
  00100	8b 45 fc	 mov	 eax, DWORD PTR _s$[ebp]
  00103	8b 48 14	 mov	 ecx, DWORD PTR [eax+20]
  00106	c6 04 0a 8b	 mov	 BYTE PTR [edx+ecx], 139	; 0000008bH
  0010a	8b 55 fc	 mov	 edx, DWORD PTR _s$[ebp]
  0010d	8b 42 14	 mov	 eax, DWORD PTR [edx+20]
  00110	83 c0 01	 add	 eax, 1
  00113	8b 4d fc	 mov	 ecx, DWORD PTR _s$[ebp]
  00116	89 41 14	 mov	 DWORD PTR [ecx+20], eax

; 583  :             put_byte(s, 8);

  00119	8b 55 fc	 mov	 edx, DWORD PTR _s$[ebp]
  0011c	8b 42 08	 mov	 eax, DWORD PTR [edx+8]
  0011f	8b 4d fc	 mov	 ecx, DWORD PTR _s$[ebp]
  00122	8b 51 14	 mov	 edx, DWORD PTR [ecx+20]
  00125	c6 04 10 08	 mov	 BYTE PTR [eax+edx], 8
  00129	8b 45 fc	 mov	 eax, DWORD PTR _s$[ebp]
  0012c	8b 48 14	 mov	 ecx, DWORD PTR [eax+20]
  0012f	83 c1 01	 add	 ecx, 1
  00132	8b 55 fc	 mov	 edx, DWORD PTR _s$[ebp]
  00135	89 4a 14	 mov	 DWORD PTR [edx+20], ecx

; 584  :             if (s->gzhead == NULL) {

  00138	8b 45 fc	 mov	 eax, DWORD PTR _s$[ebp]
  0013b	83 78 1c 00	 cmp	 DWORD PTR [eax+28], 0
  0013f	0f 85 2d 01 00
	00		 jne	 $LN73@deflate

; 585  :                 put_byte(s, 0);

  00145	8b 4d fc	 mov	 ecx, DWORD PTR _s$[ebp]
  00148	8b 51 08	 mov	 edx, DWORD PTR [ecx+8]
  0014b	8b 45 fc	 mov	 eax, DWORD PTR _s$[ebp]
  0014e	8b 48 14	 mov	 ecx, DWORD PTR [eax+20]
  00151	c6 04 0a 00	 mov	 BYTE PTR [edx+ecx], 0
  00155	8b 55 fc	 mov	 edx, DWORD PTR _s$[ebp]
  00158	8b 42 14	 mov	 eax, DWORD PTR [edx+20]
  0015b	83 c0 01	 add	 eax, 1
  0015e	8b 4d fc	 mov	 ecx, DWORD PTR _s$[ebp]
  00161	89 41 14	 mov	 DWORD PTR [ecx+20], eax

; 586  :                 put_byte(s, 0);

  00164	8b 55 fc	 mov	 edx, DWORD PTR _s$[ebp]
  00167	8b 42 08	 mov	 eax, DWORD PTR [edx+8]
  0016a	8b 4d fc	 mov	 ecx, DWORD PTR _s$[ebp]
  0016d	8b 51 14	 mov	 edx, DWORD PTR [ecx+20]
  00170	c6 04 10 00	 mov	 BYTE PTR [eax+edx], 0
  00174	8b 45 fc	 mov	 eax, DWORD PTR _s$[ebp]
  00177	8b 48 14	 mov	 ecx, DWORD PTR [eax+20]
  0017a	83 c1 01	 add	 ecx, 1
  0017d	8b 55 fc	 mov	 edx, DWORD PTR _s$[ebp]
  00180	89 4a 14	 mov	 DWORD PTR [edx+20], ecx

; 587  :                 put_byte(s, 0);

  00183	8b 45 fc	 mov	 eax, DWORD PTR _s$[ebp]
  00186	8b 48 08	 mov	 ecx, DWORD PTR [eax+8]
  00189	8b 55 fc	 mov	 edx, DWORD PTR _s$[ebp]
  0018c	8b 42 14	 mov	 eax, DWORD PTR [edx+20]
  0018f	c6 04 01 00	 mov	 BYTE PTR [ecx+eax], 0
  00193	8b 4d fc	 mov	 ecx, DWORD PTR _s$[ebp]
  00196	8b 51 14	 mov	 edx, DWORD PTR [ecx+20]
  00199	83 c2 01	 add	 edx, 1
  0019c	8b 45 fc	 mov	 eax, DWORD PTR _s$[ebp]
  0019f	89 50 14	 mov	 DWORD PTR [eax+20], edx

; 588  :                 put_byte(s, 0);

  001a2	8b 4d fc	 mov	 ecx, DWORD PTR _s$[ebp]
  001a5	8b 51 08	 mov	 edx, DWORD PTR [ecx+8]
  001a8	8b 45 fc	 mov	 eax, DWORD PTR _s$[ebp]
  001ab	8b 48 14	 mov	 ecx, DWORD PTR [eax+20]
  001ae	c6 04 0a 00	 mov	 BYTE PTR [edx+ecx], 0
  001b2	8b 55 fc	 mov	 edx, DWORD PTR _s$[ebp]
  001b5	8b 42 14	 mov	 eax, DWORD PTR [edx+20]
  001b8	83 c0 01	 add	 eax, 1
  001bb	8b 4d fc	 mov	 ecx, DWORD PTR _s$[ebp]
  001be	89 41 14	 mov	 DWORD PTR [ecx+20], eax

; 589  :                 put_byte(s, 0);

  001c1	8b 55 fc	 mov	 edx, DWORD PTR _s$[ebp]
  001c4	8b 42 08	 mov	 eax, DWORD PTR [edx+8]
  001c7	8b 4d fc	 mov	 ecx, DWORD PTR _s$[ebp]
  001ca	8b 51 14	 mov	 edx, DWORD PTR [ecx+20]
  001cd	c6 04 10 00	 mov	 BYTE PTR [eax+edx], 0
  001d1	8b 45 fc	 mov	 eax, DWORD PTR _s$[ebp]
  001d4	8b 48 14	 mov	 ecx, DWORD PTR [eax+20]
  001d7	83 c1 01	 add	 ecx, 1
  001da	8b 55 fc	 mov	 edx, DWORD PTR _s$[ebp]
  001dd	89 4a 14	 mov	 DWORD PTR [edx+20], ecx

; 590  :                 put_byte(s, s->level == 9 ? 2 :
; 591  :                             (s->strategy >= Z_HUFFMAN_ONLY || s->level < 2 ?
; 592  :                              4 : 0));

  001e0	8b 45 fc	 mov	 eax, DWORD PTR _s$[ebp]
  001e3	83 b8 84 00 00
	00 09		 cmp	 DWORD PTR [eax+132], 9
  001ea	75 09		 jne	 SHORT $LN86@deflate
  001ec	c7 45 d4 02 00
	00 00		 mov	 DWORD PTR tv190[ebp], 2
  001f3	eb 2e		 jmp	 SHORT $LN87@deflate
$LN86@deflate:
  001f5	8b 4d fc	 mov	 ecx, DWORD PTR _s$[ebp]
  001f8	83 b9 88 00 00
	00 02		 cmp	 DWORD PTR [ecx+136], 2
  001ff	7d 15		 jge	 SHORT $LN84@deflate
  00201	8b 55 fc	 mov	 edx, DWORD PTR _s$[ebp]
  00204	83 ba 84 00 00
	00 02		 cmp	 DWORD PTR [edx+132], 2
  0020b	7c 09		 jl	 SHORT $LN84@deflate
  0020d	c7 45 d0 00 00
	00 00		 mov	 DWORD PTR tv189[ebp], 0
  00214	eb 07		 jmp	 SHORT $LN85@deflate
$LN84@deflate:
  00216	c7 45 d0 04 00
	00 00		 mov	 DWORD PTR tv189[ebp], 4
$LN85@deflate:
  0021d	8b 45 d0	 mov	 eax, DWORD PTR tv189[ebp]
  00220	89 45 d4	 mov	 DWORD PTR tv190[ebp], eax
$LN87@deflate:
  00223	8b 4d fc	 mov	 ecx, DWORD PTR _s$[ebp]
  00226	8b 51 08	 mov	 edx, DWORD PTR [ecx+8]
  00229	8b 45 fc	 mov	 eax, DWORD PTR _s$[ebp]
  0022c	8b 48 14	 mov	 ecx, DWORD PTR [eax+20]
  0022f	8a 45 d4	 mov	 al, BYTE PTR tv190[ebp]
  00232	88 04 0a	 mov	 BYTE PTR [edx+ecx], al
  00235	8b 4d fc	 mov	 ecx, DWORD PTR _s$[ebp]
  00238	8b 51 14	 mov	 edx, DWORD PTR [ecx+20]
  0023b	83 c2 01	 add	 edx, 1
  0023e	8b 45 fc	 mov	 eax, DWORD PTR _s$[ebp]
  00241	89 50 14	 mov	 DWORD PTR [eax+20], edx

; 593  :                 put_byte(s, OS_CODE);

  00244	8b 4d fc	 mov	 ecx, DWORD PTR _s$[ebp]
  00247	8b 51 08	 mov	 edx, DWORD PTR [ecx+8]
  0024a	8b 45 fc	 mov	 eax, DWORD PTR _s$[ebp]
  0024d	8b 48 14	 mov	 ecx, DWORD PTR [eax+20]
  00250	c6 04 0a 0b	 mov	 BYTE PTR [edx+ecx], 11	; 0000000bH
  00254	8b 55 fc	 mov	 edx, DWORD PTR _s$[ebp]
  00257	8b 42 14	 mov	 eax, DWORD PTR [edx+20]
  0025a	83 c0 01	 add	 eax, 1
  0025d	8b 4d fc	 mov	 ecx, DWORD PTR _s$[ebp]
  00260	89 41 14	 mov	 DWORD PTR [ecx+20], eax

; 594  :                 s->status = BUSY_STATE;

  00263	8b 55 fc	 mov	 edx, DWORD PTR _s$[ebp]
  00266	c7 42 04 71 00
	00 00		 mov	 DWORD PTR [edx+4], 113	; 00000071H

; 595  :             }
; 596  :             else {

  0026d	e9 68 02 00 00	 jmp	 $LN72@deflate
$LN73@deflate:

; 597  :                 put_byte(s, (s->gzhead->text ? 1 : 0) +
; 598  :                             (s->gzhead->hcrc ? 2 : 0) +
; 599  :                             (s->gzhead->extra == Z_NULL ? 0 : 4) +
; 600  :                             (s->gzhead->name == Z_NULL ? 0 : 8) +
; 601  :                             (s->gzhead->comment == Z_NULL ? 0 : 16)
; 602  :                         );

  00272	8b 45 fc	 mov	 eax, DWORD PTR _s$[ebp]
  00275	8b 48 1c	 mov	 ecx, DWORD PTR [eax+28]
  00278	33 d2		 xor	 edx, edx
  0027a	83 39 00	 cmp	 DWORD PTR [ecx], 0
  0027d	0f 95 c2	 setne	 dl
  00280	8b 45 fc	 mov	 eax, DWORD PTR _s$[ebp]
  00283	8b 48 1c	 mov	 ecx, DWORD PTR [eax+28]
  00286	8b 41 2c	 mov	 eax, DWORD PTR [ecx+44]
  00289	f7 d8		 neg	 eax
  0028b	1b c0		 sbb	 eax, eax
  0028d	83 e0 02	 and	 eax, 2
  00290	03 d0		 add	 edx, eax
  00292	8b 4d fc	 mov	 ecx, DWORD PTR _s$[ebp]
  00295	8b 41 1c	 mov	 eax, DWORD PTR [ecx+28]
  00298	8b 48 10	 mov	 ecx, DWORD PTR [eax+16]
  0029b	f7 d9		 neg	 ecx
  0029d	1b c9		 sbb	 ecx, ecx
  0029f	83 e1 04	 and	 ecx, 4
  002a2	03 d1		 add	 edx, ecx
  002a4	8b 45 fc	 mov	 eax, DWORD PTR _s$[ebp]
  002a7	8b 48 1c	 mov	 ecx, DWORD PTR [eax+28]
  002aa	8b 41 1c	 mov	 eax, DWORD PTR [ecx+28]
  002ad	f7 d8		 neg	 eax
  002af	1b c0		 sbb	 eax, eax
  002b1	83 e0 08	 and	 eax, 8
  002b4	03 d0		 add	 edx, eax
  002b6	8b 4d fc	 mov	 ecx, DWORD PTR _s$[ebp]
  002b9	8b 41 1c	 mov	 eax, DWORD PTR [ecx+28]
  002bc	8b 48 24	 mov	 ecx, DWORD PTR [eax+36]
  002bf	f7 d9		 neg	 ecx
  002c1	1b c9		 sbb	 ecx, ecx
  002c3	83 e1 10	 and	 ecx, 16			; 00000010H
  002c6	03 d1		 add	 edx, ecx
  002c8	8b 45 fc	 mov	 eax, DWORD PTR _s$[ebp]
  002cb	8b 48 08	 mov	 ecx, DWORD PTR [eax+8]
  002ce	8b 45 fc	 mov	 eax, DWORD PTR _s$[ebp]
  002d1	8b 40 14	 mov	 eax, DWORD PTR [eax+20]
  002d4	88 14 01	 mov	 BYTE PTR [ecx+eax], dl
  002d7	8b 4d fc	 mov	 ecx, DWORD PTR _s$[ebp]
  002da	8b 51 14	 mov	 edx, DWORD PTR [ecx+20]
  002dd	83 c2 01	 add	 edx, 1
  002e0	8b 45 fc	 mov	 eax, DWORD PTR _s$[ebp]
  002e3	89 50 14	 mov	 DWORD PTR [eax+20], edx

; 603  :                 put_byte(s, (Byte)(s->gzhead->time & 0xff));

  002e6	8b 4d fc	 mov	 ecx, DWORD PTR _s$[ebp]
  002e9	8b 51 1c	 mov	 edx, DWORD PTR [ecx+28]
  002ec	8b 42 04	 mov	 eax, DWORD PTR [edx+4]
  002ef	25 ff 00 00 00	 and	 eax, 255		; 000000ffH
  002f4	8b 4d fc	 mov	 ecx, DWORD PTR _s$[ebp]
  002f7	8b 51 08	 mov	 edx, DWORD PTR [ecx+8]
  002fa	8b 4d fc	 mov	 ecx, DWORD PTR _s$[ebp]
  002fd	8b 49 14	 mov	 ecx, DWORD PTR [ecx+20]
  00300	88 04 0a	 mov	 BYTE PTR [edx+ecx], al
  00303	8b 55 fc	 mov	 edx, DWORD PTR _s$[ebp]
  00306	8b 42 14	 mov	 eax, DWORD PTR [edx+20]
  00309	83 c0 01	 add	 eax, 1
  0030c	8b 4d fc	 mov	 ecx, DWORD PTR _s$[ebp]
  0030f	89 41 14	 mov	 DWORD PTR [ecx+20], eax

; 604  :                 put_byte(s, (Byte)((s->gzhead->time >> 8) & 0xff));

  00312	8b 55 fc	 mov	 edx, DWORD PTR _s$[ebp]
  00315	8b 42 1c	 mov	 eax, DWORD PTR [edx+28]
  00318	8b 48 04	 mov	 ecx, DWORD PTR [eax+4]
  0031b	c1 e9 08	 shr	 ecx, 8
  0031e	81 e1 ff 00 00
	00		 and	 ecx, 255		; 000000ffH
  00324	8b 55 fc	 mov	 edx, DWORD PTR _s$[ebp]
  00327	8b 42 08	 mov	 eax, DWORD PTR [edx+8]
  0032a	8b 55 fc	 mov	 edx, DWORD PTR _s$[ebp]
  0032d	8b 52 14	 mov	 edx, DWORD PTR [edx+20]
  00330	88 0c 10	 mov	 BYTE PTR [eax+edx], cl
  00333	8b 45 fc	 mov	 eax, DWORD PTR _s$[ebp]
  00336	8b 48 14	 mov	 ecx, DWORD PTR [eax+20]
  00339	83 c1 01	 add	 ecx, 1
  0033c	8b 55 fc	 mov	 edx, DWORD PTR _s$[ebp]
  0033f	89 4a 14	 mov	 DWORD PTR [edx+20], ecx

; 605  :                 put_byte(s, (Byte)((s->gzhead->time >> 16) & 0xff));

  00342	8b 45 fc	 mov	 eax, DWORD PTR _s$[ebp]
  00345	8b 48 1c	 mov	 ecx, DWORD PTR [eax+28]
  00348	8b 51 04	 mov	 edx, DWORD PTR [ecx+4]
  0034b	c1 ea 10	 shr	 edx, 16			; 00000010H
  0034e	81 e2 ff 00 00
	00		 and	 edx, 255		; 000000ffH
  00354	8b 45 fc	 mov	 eax, DWORD PTR _s$[ebp]
  00357	8b 48 08	 mov	 ecx, DWORD PTR [eax+8]
  0035a	8b 45 fc	 mov	 eax, DWORD PTR _s$[ebp]
  0035d	8b 40 14	 mov	 eax, DWORD PTR [eax+20]
  00360	88 14 01	 mov	 BYTE PTR [ecx+eax], dl
  00363	8b 4d fc	 mov	 ecx, DWORD PTR _s$[ebp]
  00366	8b 51 14	 mov	 edx, DWORD PTR [ecx+20]
  00369	83 c2 01	 add	 edx, 1
  0036c	8b 45 fc	 mov	 eax, DWORD PTR _s$[ebp]
  0036f	89 50 14	 mov	 DWORD PTR [eax+20], edx

; 606  :                 put_byte(s, (Byte)((s->gzhead->time >> 24) & 0xff));

  00372	8b 4d fc	 mov	 ecx, DWORD PTR _s$[ebp]
  00375	8b 51 1c	 mov	 edx, DWORD PTR [ecx+28]
  00378	8b 42 04	 mov	 eax, DWORD PTR [edx+4]
  0037b	c1 e8 18	 shr	 eax, 24			; 00000018H
  0037e	25 ff 00 00 00	 and	 eax, 255		; 000000ffH
  00383	8b 4d fc	 mov	 ecx, DWORD PTR _s$[ebp]
  00386	8b 51 08	 mov	 edx, DWORD PTR [ecx+8]
  00389	8b 4d fc	 mov	 ecx, DWORD PTR _s$[ebp]
  0038c	8b 49 14	 mov	 ecx, DWORD PTR [ecx+20]
  0038f	88 04 0a	 mov	 BYTE PTR [edx+ecx], al
  00392	8b 55 fc	 mov	 edx, DWORD PTR _s$[ebp]
  00395	8b 42 14	 mov	 eax, DWORD PTR [edx+20]
  00398	83 c0 01	 add	 eax, 1
  0039b	8b 4d fc	 mov	 ecx, DWORD PTR _s$[ebp]
  0039e	89 41 14	 mov	 DWORD PTR [ecx+20], eax

; 607  :                 put_byte(s, s->level == 9 ? 2 :
; 608  :                             (s->strategy >= Z_HUFFMAN_ONLY || s->level < 2 ?
; 609  :                              4 : 0));

  003a1	8b 55 fc	 mov	 edx, DWORD PTR _s$[ebp]
  003a4	83 ba 84 00 00
	00 09		 cmp	 DWORD PTR [edx+132], 9
  003ab	75 09		 jne	 SHORT $LN90@deflate
  003ad	c7 45 cc 02 00
	00 00		 mov	 DWORD PTR tv286[ebp], 2
  003b4	eb 2e		 jmp	 SHORT $LN91@deflate
$LN90@deflate:
  003b6	8b 45 fc	 mov	 eax, DWORD PTR _s$[ebp]
  003b9	83 b8 88 00 00
	00 02		 cmp	 DWORD PTR [eax+136], 2
  003c0	7d 15		 jge	 SHORT $LN88@deflate
  003c2	8b 4d fc	 mov	 ecx, DWORD PTR _s$[ebp]
  003c5	83 b9 84 00 00
	00 02		 cmp	 DWORD PTR [ecx+132], 2
  003cc	7c 09		 jl	 SHORT $LN88@deflate
  003ce	c7 45 c8 00 00
	00 00		 mov	 DWORD PTR tv285[ebp], 0
  003d5	eb 07		 jmp	 SHORT $LN89@deflate
$LN88@deflate:
  003d7	c7 45 c8 04 00
	00 00		 mov	 DWORD PTR tv285[ebp], 4
$LN89@deflate:
  003de	8b 55 c8	 mov	 edx, DWORD PTR tv285[ebp]
  003e1	89 55 cc	 mov	 DWORD PTR tv286[ebp], edx
$LN91@deflate:
  003e4	8b 45 fc	 mov	 eax, DWORD PTR _s$[ebp]
  003e7	8b 48 08	 mov	 ecx, DWORD PTR [eax+8]
  003ea	8b 55 fc	 mov	 edx, DWORD PTR _s$[ebp]
  003ed	8b 42 14	 mov	 eax, DWORD PTR [edx+20]
  003f0	8a 55 cc	 mov	 dl, BYTE PTR tv286[ebp]
  003f3	88 14 01	 mov	 BYTE PTR [ecx+eax], dl
  003f6	8b 45 fc	 mov	 eax, DWORD PTR _s$[ebp]
  003f9	8b 48 14	 mov	 ecx, DWORD PTR [eax+20]
  003fc	83 c1 01	 add	 ecx, 1
  003ff	8b 55 fc	 mov	 edx, DWORD PTR _s$[ebp]
  00402	89 4a 14	 mov	 DWORD PTR [edx+20], ecx

; 610  :                 put_byte(s, s->gzhead->os & 0xff);

  00405	8b 45 fc	 mov	 eax, DWORD PTR _s$[ebp]
  00408	8b 48 1c	 mov	 ecx, DWORD PTR [eax+28]
  0040b	8b 51 0c	 mov	 edx, DWORD PTR [ecx+12]
  0040e	81 e2 ff 00 00
	00		 and	 edx, 255		; 000000ffH
  00414	8b 45 fc	 mov	 eax, DWORD PTR _s$[ebp]
  00417	8b 48 08	 mov	 ecx, DWORD PTR [eax+8]
  0041a	8b 45 fc	 mov	 eax, DWORD PTR _s$[ebp]
  0041d	8b 40 14	 mov	 eax, DWORD PTR [eax+20]
  00420	88 14 01	 mov	 BYTE PTR [ecx+eax], dl
  00423	8b 4d fc	 mov	 ecx, DWORD PTR _s$[ebp]
  00426	8b 51 14	 mov	 edx, DWORD PTR [ecx+20]
  00429	83 c2 01	 add	 edx, 1
  0042c	8b 45 fc	 mov	 eax, DWORD PTR _s$[ebp]
  0042f	89 50 14	 mov	 DWORD PTR [eax+20], edx

; 611  :                 if (s->gzhead->extra != NULL) {

  00432	8b 4d fc	 mov	 ecx, DWORD PTR _s$[ebp]
  00435	8b 51 1c	 mov	 edx, DWORD PTR [ecx+28]
  00438	83 7a 10 00	 cmp	 DWORD PTR [edx+16], 0
  0043c	74 5c		 je	 SHORT $LN71@deflate

; 612  :                     put_byte(s, s->gzhead->extra_len & 0xff);

  0043e	8b 45 fc	 mov	 eax, DWORD PTR _s$[ebp]
  00441	8b 48 1c	 mov	 ecx, DWORD PTR [eax+28]
  00444	8b 51 14	 mov	 edx, DWORD PTR [ecx+20]
  00447	81 e2 ff 00 00
	00		 and	 edx, 255		; 000000ffH
  0044d	8b 45 fc	 mov	 eax, DWORD PTR _s$[ebp]
  00450	8b 48 08	 mov	 ecx, DWORD PTR [eax+8]
  00453	8b 45 fc	 mov	 eax, DWORD PTR _s$[ebp]
  00456	8b 40 14	 mov	 eax, DWORD PTR [eax+20]
  00459	88 14 01	 mov	 BYTE PTR [ecx+eax], dl
  0045c	8b 4d fc	 mov	 ecx, DWORD PTR _s$[ebp]
  0045f	8b 51 14	 mov	 edx, DWORD PTR [ecx+20]
  00462	83 c2 01	 add	 edx, 1
  00465	8b 45 fc	 mov	 eax, DWORD PTR _s$[ebp]
  00468	89 50 14	 mov	 DWORD PTR [eax+20], edx

; 613  :                     put_byte(s, (s->gzhead->extra_len >> 8) & 0xff);

  0046b	8b 4d fc	 mov	 ecx, DWORD PTR _s$[ebp]
  0046e	8b 51 1c	 mov	 edx, DWORD PTR [ecx+28]
  00471	8b 42 14	 mov	 eax, DWORD PTR [edx+20]
  00474	c1 e8 08	 shr	 eax, 8
  00477	25 ff 00 00 00	 and	 eax, 255		; 000000ffH
  0047c	8b 4d fc	 mov	 ecx, DWORD PTR _s$[ebp]
  0047f	8b 51 08	 mov	 edx, DWORD PTR [ecx+8]
  00482	8b 4d fc	 mov	 ecx, DWORD PTR _s$[ebp]
  00485	8b 49 14	 mov	 ecx, DWORD PTR [ecx+20]
  00488	88 04 0a	 mov	 BYTE PTR [edx+ecx], al
  0048b	8b 55 fc	 mov	 edx, DWORD PTR _s$[ebp]
  0048e	8b 42 14	 mov	 eax, DWORD PTR [edx+20]
  00491	83 c0 01	 add	 eax, 1
  00494	8b 4d fc	 mov	 ecx, DWORD PTR _s$[ebp]
  00497	89 41 14	 mov	 DWORD PTR [ecx+20], eax
$LN71@deflate:

; 614  :                 }
; 615  :                 if (s->gzhead->hcrc)

  0049a	8b 55 fc	 mov	 edx, DWORD PTR _s$[ebp]
  0049d	8b 42 1c	 mov	 eax, DWORD PTR [edx+28]
  004a0	83 78 2c 00	 cmp	 DWORD PTR [eax+44], 0
  004a4	74 20		 je	 SHORT $LN70@deflate

; 616  :                     strm->adler = crc32(strm->adler, s->pending_buf,
; 617  :                                         s->pending);

  004a6	8b 4d fc	 mov	 ecx, DWORD PTR _s$[ebp]
  004a9	8b 51 14	 mov	 edx, DWORD PTR [ecx+20]
  004ac	52		 push	 edx
  004ad	8b 45 fc	 mov	 eax, DWORD PTR _s$[ebp]
  004b0	8b 48 08	 mov	 ecx, DWORD PTR [eax+8]
  004b3	51		 push	 ecx
  004b4	8b 55 08	 mov	 edx, DWORD PTR _strm$[ebp]
  004b7	8b 42 30	 mov	 eax, DWORD PTR [edx+48]
  004ba	50		 push	 eax
  004bb	e8 00 00 00 00	 call	 _crc32@12
  004c0	8b 4d 08	 mov	 ecx, DWORD PTR _strm$[ebp]
  004c3	89 41 30	 mov	 DWORD PTR [ecx+48], eax
$LN70@deflate:

; 618  :                 s->gzindex = 0;

  004c6	8b 55 fc	 mov	 edx, DWORD PTR _s$[ebp]
  004c9	c7 42 20 00 00
	00 00		 mov	 DWORD PTR [edx+32], 0

; 619  :                 s->status = EXTRA_STATE;

  004d0	8b 45 fc	 mov	 eax, DWORD PTR _s$[ebp]
  004d3	c7 40 04 45 00
	00 00		 mov	 DWORD PTR [eax+4], 69	; 00000045H
$LN72@deflate:

; 620  :             }
; 621  :         }
; 622  :         else

  004da	e9 00 01 00 00	 jmp	 $LN75@deflate
$LN74@deflate:

; 623  : #endif
; 624  :         {
; 625  :             uInt header = (Z_DEFLATED + ((s->w_bits-8)<<4)) << 8;

  004df	8b 4d fc	 mov	 ecx, DWORD PTR _s$[ebp]
  004e2	8b 51 30	 mov	 edx, DWORD PTR [ecx+48]
  004e5	83 ea 08	 sub	 edx, 8
  004e8	c1 e2 04	 shl	 edx, 4
  004eb	83 c2 08	 add	 edx, 8
  004ee	c1 e2 08	 shl	 edx, 8
  004f1	89 55 f0	 mov	 DWORD PTR _header$77781[ebp], edx

; 626  :             uInt level_flags;
; 627  : 
; 628  :             if (s->strategy >= Z_HUFFMAN_ONLY || s->level < 2)

  004f4	8b 45 fc	 mov	 eax, DWORD PTR _s$[ebp]
  004f7	83 b8 88 00 00
	00 02		 cmp	 DWORD PTR [eax+136], 2
  004fe	7d 0c		 jge	 SHORT $LN67@deflate
  00500	8b 4d fc	 mov	 ecx, DWORD PTR _s$[ebp]
  00503	83 b9 84 00 00
	00 02		 cmp	 DWORD PTR [ecx+132], 2
  0050a	7d 09		 jge	 SHORT $LN68@deflate
$LN67@deflate:

; 629  :                 level_flags = 0;

  0050c	c7 45 f4 00 00
	00 00		 mov	 DWORD PTR _level_flags$77782[ebp], 0
  00513	eb 31		 jmp	 SHORT $LN66@deflate
$LN68@deflate:

; 630  :             else if (s->level < 6)

  00515	8b 55 fc	 mov	 edx, DWORD PTR _s$[ebp]
  00518	83 ba 84 00 00
	00 06		 cmp	 DWORD PTR [edx+132], 6
  0051f	7d 09		 jge	 SHORT $LN65@deflate

; 631  :                 level_flags = 1;

  00521	c7 45 f4 01 00
	00 00		 mov	 DWORD PTR _level_flags$77782[ebp], 1
  00528	eb 1c		 jmp	 SHORT $LN66@deflate
$LN65@deflate:

; 632  :             else if (s->level == 6)

  0052a	8b 45 fc	 mov	 eax, DWORD PTR _s$[ebp]
  0052d	83 b8 84 00 00
	00 06		 cmp	 DWORD PTR [eax+132], 6
  00534	75 09		 jne	 SHORT $LN63@deflate

; 633  :                 level_flags = 2;

  00536	c7 45 f4 02 00
	00 00		 mov	 DWORD PTR _level_flags$77782[ebp], 2

; 634  :             else

  0053d	eb 07		 jmp	 SHORT $LN66@deflate
$LN63@deflate:

; 635  :                 level_flags = 3;

  0053f	c7 45 f4 03 00
	00 00		 mov	 DWORD PTR _level_flags$77782[ebp], 3
$LN66@deflate:

; 636  :             header |= (level_flags << 6);

  00546	8b 4d f4	 mov	 ecx, DWORD PTR _level_flags$77782[ebp]
  00549	c1 e1 06	 shl	 ecx, 6
  0054c	0b 4d f0	 or	 ecx, DWORD PTR _header$77781[ebp]
  0054f	89 4d f0	 mov	 DWORD PTR _header$77781[ebp], ecx

; 637  :             if (s->strstart != 0) header |= PRESET_DICT;

  00552	8b 55 fc	 mov	 edx, DWORD PTR _s$[ebp]
  00555	83 7a 6c 00	 cmp	 DWORD PTR [edx+108], 0
  00559	74 09		 je	 SHORT $LN61@deflate
  0055b	8b 45 f0	 mov	 eax, DWORD PTR _header$77781[ebp]
  0055e	83 c8 20	 or	 eax, 32			; 00000020H
  00561	89 45 f0	 mov	 DWORD PTR _header$77781[ebp], eax
$LN61@deflate:

; 638  :             header += 31 - (header % 31);

  00564	8b 45 f0	 mov	 eax, DWORD PTR _header$77781[ebp]
  00567	33 d2		 xor	 edx, edx
  00569	b9 1f 00 00 00	 mov	 ecx, 31			; 0000001fH
  0056e	f7 f1		 div	 ecx
  00570	b8 1f 00 00 00	 mov	 eax, 31			; 0000001fH
  00575	2b c2		 sub	 eax, edx
  00577	03 45 f0	 add	 eax, DWORD PTR _header$77781[ebp]
  0057a	89 45 f0	 mov	 DWORD PTR _header$77781[ebp], eax

; 639  : 
; 640  :             s->status = BUSY_STATE;

  0057d	8b 4d fc	 mov	 ecx, DWORD PTR _s$[ebp]
  00580	c7 41 04 71 00
	00 00		 mov	 DWORD PTR [ecx+4], 113	; 00000071H

; 641  :             putShortMSB(s, header);

  00587	8b 55 f0	 mov	 edx, DWORD PTR _header$77781[ebp]
  0058a	52		 push	 edx
  0058b	8b 45 fc	 mov	 eax, DWORD PTR _s$[ebp]
  0058e	50		 push	 eax
  0058f	e8 00 00 00 00	 call	 _putShortMSB
  00594	83 c4 08	 add	 esp, 8

; 642  : 
; 643  :             /* Save the adler32 of the preset dictionary: */
; 644  :             if (s->strstart != 0) {

  00597	8b 4d fc	 mov	 ecx, DWORD PTR _s$[ebp]
  0059a	83 79 6c 00	 cmp	 DWORD PTR [ecx+108], 0
  0059e	74 2e		 je	 SHORT $LN60@deflate

; 645  :                 putShortMSB(s, (uInt)(strm->adler >> 16));

  005a0	8b 55 08	 mov	 edx, DWORD PTR _strm$[ebp]
  005a3	8b 42 30	 mov	 eax, DWORD PTR [edx+48]
  005a6	c1 e8 10	 shr	 eax, 16			; 00000010H
  005a9	50		 push	 eax
  005aa	8b 4d fc	 mov	 ecx, DWORD PTR _s$[ebp]
  005ad	51		 push	 ecx
  005ae	e8 00 00 00 00	 call	 _putShortMSB
  005b3	83 c4 08	 add	 esp, 8

; 646  :                 putShortMSB(s, (uInt)(strm->adler & 0xffff));

  005b6	8b 55 08	 mov	 edx, DWORD PTR _strm$[ebp]
  005b9	8b 42 30	 mov	 eax, DWORD PTR [edx+48]
  005bc	25 ff ff 00 00	 and	 eax, 65535		; 0000ffffH
  005c1	50		 push	 eax
  005c2	8b 4d fc	 mov	 ecx, DWORD PTR _s$[ebp]
  005c5	51		 push	 ecx
  005c6	e8 00 00 00 00	 call	 _putShortMSB
  005cb	83 c4 08	 add	 esp, 8
$LN60@deflate:

; 647  :             }
; 648  :             strm->adler = adler32(0L, Z_NULL, 0);

  005ce	6a 00		 push	 0
  005d0	6a 00		 push	 0
  005d2	6a 00		 push	 0
  005d4	e8 00 00 00 00	 call	 _adler32@12
  005d9	8b 55 08	 mov	 edx, DWORD PTR _strm$[ebp]
  005dc	89 42 30	 mov	 DWORD PTR [edx+48], eax
$LN75@deflate:

; 649  :         }
; 650  :     }
; 651  : #ifdef GZIP
; 652  :     if (s->status == EXTRA_STATE) {

  005df	8b 45 fc	 mov	 eax, DWORD PTR _s$[ebp]
  005e2	83 78 04 45	 cmp	 DWORD PTR [eax+4], 69	; 00000045H
  005e6	0f 85 56 01 00
	00		 jne	 $LN59@deflate

; 653  :         if (s->gzhead->extra != NULL) {

  005ec	8b 4d fc	 mov	 ecx, DWORD PTR _s$[ebp]
  005ef	8b 51 1c	 mov	 edx, DWORD PTR [ecx+28]
  005f2	83 7a 10 00	 cmp	 DWORD PTR [edx+16], 0
  005f6	0f 84 3c 01 00
	00		 je	 $LN58@deflate

; 654  :             uInt beg = s->pending;  /* start of bytes to update crc */

  005fc	8b 45 fc	 mov	 eax, DWORD PTR _s$[ebp]
  005ff	8b 48 14	 mov	 ecx, DWORD PTR [eax+20]
  00602	89 4d ec	 mov	 DWORD PTR _beg$77797[ebp], ecx
$LN57@deflate:

; 655  : 
; 656  :             while (s->gzindex < (s->gzhead->extra_len & 0xffff)) {

  00605	8b 55 fc	 mov	 edx, DWORD PTR _s$[ebp]
  00608	8b 42 1c	 mov	 eax, DWORD PTR [edx+28]
  0060b	8b 48 14	 mov	 ecx, DWORD PTR [eax+20]
  0060e	81 e1 ff ff 00
	00		 and	 ecx, 65535		; 0000ffffH
  00614	8b 55 fc	 mov	 edx, DWORD PTR _s$[ebp]
  00617	39 4a 20	 cmp	 DWORD PTR [edx+32], ecx
  0061a	0f 83 b4 00 00
	00		 jae	 $LN56@deflate

; 657  :                 if (s->pending == s->pending_buf_size) {

  00620	8b 45 fc	 mov	 eax, DWORD PTR _s$[ebp]
  00623	8b 4d fc	 mov	 ecx, DWORD PTR _s$[ebp]
  00626	8b 50 14	 mov	 edx, DWORD PTR [eax+20]
  00629	3b 51 0c	 cmp	 edx, DWORD PTR [ecx+12]
  0062c	75 62		 jne	 SHORT $LN55@deflate

; 658  :                     if (s->gzhead->hcrc && s->pending > beg)

  0062e	8b 45 fc	 mov	 eax, DWORD PTR _s$[ebp]
  00631	8b 48 1c	 mov	 ecx, DWORD PTR [eax+28]
  00634	83 79 2c 00	 cmp	 DWORD PTR [ecx+44], 0
  00638	74 31		 je	 SHORT $LN54@deflate
  0063a	8b 55 fc	 mov	 edx, DWORD PTR _s$[ebp]
  0063d	8b 42 14	 mov	 eax, DWORD PTR [edx+20]
  00640	3b 45 ec	 cmp	 eax, DWORD PTR _beg$77797[ebp]
  00643	76 26		 jbe	 SHORT $LN54@deflate

; 659  :                         strm->adler = crc32(strm->adler, s->pending_buf + beg,
; 660  :                                             s->pending - beg);

  00645	8b 4d fc	 mov	 ecx, DWORD PTR _s$[ebp]
  00648	8b 51 14	 mov	 edx, DWORD PTR [ecx+20]
  0064b	2b 55 ec	 sub	 edx, DWORD PTR _beg$77797[ebp]
  0064e	52		 push	 edx
  0064f	8b 45 fc	 mov	 eax, DWORD PTR _s$[ebp]
  00652	8b 48 08	 mov	 ecx, DWORD PTR [eax+8]
  00655	03 4d ec	 add	 ecx, DWORD PTR _beg$77797[ebp]
  00658	51		 push	 ecx
  00659	8b 55 08	 mov	 edx, DWORD PTR _strm$[ebp]
  0065c	8b 42 30	 mov	 eax, DWORD PTR [edx+48]
  0065f	50		 push	 eax
  00660	e8 00 00 00 00	 call	 _crc32@12
  00665	8b 4d 08	 mov	 ecx, DWORD PTR _strm$[ebp]
  00668	89 41 30	 mov	 DWORD PTR [ecx+48], eax
$LN54@deflate:

; 661  :                     flush_pending(strm);

  0066b	8b 55 08	 mov	 edx, DWORD PTR _strm$[ebp]
  0066e	52		 push	 edx
  0066f	e8 00 00 00 00	 call	 _flush_pending
  00674	83 c4 04	 add	 esp, 4

; 662  :                     beg = s->pending;

  00677	8b 45 fc	 mov	 eax, DWORD PTR _s$[ebp]
  0067a	8b 48 14	 mov	 ecx, DWORD PTR [eax+20]
  0067d	89 4d ec	 mov	 DWORD PTR _beg$77797[ebp], ecx

; 663  :                     if (s->pending == s->pending_buf_size)

  00680	8b 55 fc	 mov	 edx, DWORD PTR _s$[ebp]
  00683	8b 45 fc	 mov	 eax, DWORD PTR _s$[ebp]
  00686	8b 4a 14	 mov	 ecx, DWORD PTR [edx+20]
  00689	3b 48 0c	 cmp	 ecx, DWORD PTR [eax+12]
  0068c	75 02		 jne	 SHORT $LN55@deflate

; 664  :                         break;

  0068e	eb 44		 jmp	 SHORT $LN56@deflate
$LN55@deflate:

; 665  :                 }
; 666  :                 put_byte(s, s->gzhead->extra[s->gzindex]);

  00690	8b 55 fc	 mov	 edx, DWORD PTR _s$[ebp]
  00693	8b 42 1c	 mov	 eax, DWORD PTR [edx+28]
  00696	8b 48 10	 mov	 ecx, DWORD PTR [eax+16]
  00699	8b 55 fc	 mov	 edx, DWORD PTR _s$[ebp]
  0069c	8b 42 20	 mov	 eax, DWORD PTR [edx+32]
  0069f	8b 55 fc	 mov	 edx, DWORD PTR _s$[ebp]
  006a2	8b 52 08	 mov	 edx, DWORD PTR [edx+8]
  006a5	8b 75 fc	 mov	 esi, DWORD PTR _s$[ebp]
  006a8	8b 76 14	 mov	 esi, DWORD PTR [esi+20]
  006ab	8a 04 01	 mov	 al, BYTE PTR [ecx+eax]
  006ae	88 04 32	 mov	 BYTE PTR [edx+esi], al
  006b1	8b 4d fc	 mov	 ecx, DWORD PTR _s$[ebp]
  006b4	8b 51 14	 mov	 edx, DWORD PTR [ecx+20]
  006b7	83 c2 01	 add	 edx, 1
  006ba	8b 45 fc	 mov	 eax, DWORD PTR _s$[ebp]
  006bd	89 50 14	 mov	 DWORD PTR [eax+20], edx

; 667  :                 s->gzindex++;

  006c0	8b 4d fc	 mov	 ecx, DWORD PTR _s$[ebp]
  006c3	8b 51 20	 mov	 edx, DWORD PTR [ecx+32]
  006c6	83 c2 01	 add	 edx, 1
  006c9	8b 45 fc	 mov	 eax, DWORD PTR _s$[ebp]
  006cc	89 50 20	 mov	 DWORD PTR [eax+32], edx

; 668  :             }

  006cf	e9 31 ff ff ff	 jmp	 $LN57@deflate
$LN56@deflate:

; 669  :             if (s->gzhead->hcrc && s->pending > beg)

  006d4	8b 4d fc	 mov	 ecx, DWORD PTR _s$[ebp]
  006d7	8b 51 1c	 mov	 edx, DWORD PTR [ecx+28]
  006da	83 7a 2c 00	 cmp	 DWORD PTR [edx+44], 0
  006de	74 31		 je	 SHORT $LN52@deflate
  006e0	8b 45 fc	 mov	 eax, DWORD PTR _s$[ebp]
  006e3	8b 48 14	 mov	 ecx, DWORD PTR [eax+20]
  006e6	3b 4d ec	 cmp	 ecx, DWORD PTR _beg$77797[ebp]
  006e9	76 26		 jbe	 SHORT $LN52@deflate

; 670  :                 strm->adler = crc32(strm->adler, s->pending_buf + beg,
; 671  :                                     s->pending - beg);

  006eb	8b 55 fc	 mov	 edx, DWORD PTR _s$[ebp]
  006ee	8b 42 14	 mov	 eax, DWORD PTR [edx+20]
  006f1	2b 45 ec	 sub	 eax, DWORD PTR _beg$77797[ebp]
  006f4	50		 push	 eax
  006f5	8b 4d fc	 mov	 ecx, DWORD PTR _s$[ebp]
  006f8	8b 51 08	 mov	 edx, DWORD PTR [ecx+8]
  006fb	03 55 ec	 add	 edx, DWORD PTR _beg$77797[ebp]
  006fe	52		 push	 edx
  006ff	8b 45 08	 mov	 eax, DWORD PTR _strm$[ebp]
  00702	8b 48 30	 mov	 ecx, DWORD PTR [eax+48]
  00705	51		 push	 ecx
  00706	e8 00 00 00 00	 call	 _crc32@12
  0070b	8b 55 08	 mov	 edx, DWORD PTR _strm$[ebp]
  0070e	89 42 30	 mov	 DWORD PTR [edx+48], eax
$LN52@deflate:

; 672  :             if (s->gzindex == s->gzhead->extra_len) {

  00711	8b 45 fc	 mov	 eax, DWORD PTR _s$[ebp]
  00714	8b 48 1c	 mov	 ecx, DWORD PTR [eax+28]
  00717	8b 55 fc	 mov	 edx, DWORD PTR _s$[ebp]
  0071a	8b 42 20	 mov	 eax, DWORD PTR [edx+32]
  0071d	3b 41 14	 cmp	 eax, DWORD PTR [ecx+20]
  00720	75 14		 jne	 SHORT $LN51@deflate

; 673  :                 s->gzindex = 0;

  00722	8b 4d fc	 mov	 ecx, DWORD PTR _s$[ebp]
  00725	c7 41 20 00 00
	00 00		 mov	 DWORD PTR [ecx+32], 0

; 674  :                 s->status = NAME_STATE;

  0072c	8b 55 fc	 mov	 edx, DWORD PTR _s$[ebp]
  0072f	c7 42 04 49 00
	00 00		 mov	 DWORD PTR [edx+4], 73	; 00000049H
$LN51@deflate:

; 675  :             }
; 676  :         }
; 677  :         else

  00736	eb 0a		 jmp	 SHORT $LN59@deflate
$LN58@deflate:

; 678  :             s->status = NAME_STATE;

  00738	8b 45 fc	 mov	 eax, DWORD PTR _s$[ebp]
  0073b	c7 40 04 49 00
	00 00		 mov	 DWORD PTR [eax+4], 73	; 00000049H
$LN59@deflate:

; 679  :     }
; 680  :     if (s->status == NAME_STATE) {

  00742	8b 4d fc	 mov	 ecx, DWORD PTR _s$[ebp]
  00745	83 79 04 49	 cmp	 DWORD PTR [ecx+4], 73	; 00000049H
  00749	0f 85 43 01 00
	00		 jne	 $LN49@deflate

; 681  :         if (s->gzhead->name != NULL) {

  0074f	8b 55 fc	 mov	 edx, DWORD PTR _s$[ebp]
  00752	8b 42 1c	 mov	 eax, DWORD PTR [edx+28]
  00755	83 78 1c 00	 cmp	 DWORD PTR [eax+28], 0
  00759	0f 84 29 01 00
	00		 je	 $LN48@deflate

; 682  :             uInt beg = s->pending;  /* start of bytes to update crc */

  0075f	8b 4d fc	 mov	 ecx, DWORD PTR _s$[ebp]
  00762	8b 51 14	 mov	 edx, DWORD PTR [ecx+20]
  00765	89 55 e8	 mov	 DWORD PTR _beg$77810[ebp], edx
$LN47@deflate:

; 683  :             int val;
; 684  : 
; 685  :             do {
; 686  :                 if (s->pending == s->pending_buf_size) {

  00768	8b 45 fc	 mov	 eax, DWORD PTR _s$[ebp]
  0076b	8b 4d fc	 mov	 ecx, DWORD PTR _s$[ebp]
  0076e	8b 50 14	 mov	 edx, DWORD PTR [eax+20]
  00771	3b 51 0c	 cmp	 edx, DWORD PTR [ecx+12]
  00774	75 69		 jne	 SHORT $LN44@deflate

; 687  :                     if (s->gzhead->hcrc && s->pending > beg)

  00776	8b 45 fc	 mov	 eax, DWORD PTR _s$[ebp]
  00779	8b 48 1c	 mov	 ecx, DWORD PTR [eax+28]
  0077c	83 79 2c 00	 cmp	 DWORD PTR [ecx+44], 0
  00780	74 31		 je	 SHORT $LN43@deflate
  00782	8b 55 fc	 mov	 edx, DWORD PTR _s$[ebp]
  00785	8b 42 14	 mov	 eax, DWORD PTR [edx+20]
  00788	3b 45 e8	 cmp	 eax, DWORD PTR _beg$77810[ebp]
  0078b	76 26		 jbe	 SHORT $LN43@deflate

; 688  :                         strm->adler = crc32(strm->adler, s->pending_buf + beg,
; 689  :                                             s->pending - beg);

  0078d	8b 4d fc	 mov	 ecx, DWORD PTR _s$[ebp]
  00790	8b 51 14	 mov	 edx, DWORD PTR [ecx+20]
  00793	2b 55 e8	 sub	 edx, DWORD PTR _beg$77810[ebp]
  00796	52		 push	 edx
  00797	8b 45 fc	 mov	 eax, DWORD PTR _s$[ebp]
  0079a	8b 48 08	 mov	 ecx, DWORD PTR [eax+8]
  0079d	03 4d e8	 add	 ecx, DWORD PTR _beg$77810[ebp]
  007a0	51		 push	 ecx
  007a1	8b 55 08	 mov	 edx, DWORD PTR _strm$[ebp]
  007a4	8b 42 30	 mov	 eax, DWORD PTR [edx+48]
  007a7	50		 push	 eax
  007a8	e8 00 00 00 00	 call	 _crc32@12
  007ad	8b 4d 08	 mov	 ecx, DWORD PTR _strm$[ebp]
  007b0	89 41 30	 mov	 DWORD PTR [ecx+48], eax
$LN43@deflate:

; 690  :                     flush_pending(strm);

  007b3	8b 55 08	 mov	 edx, DWORD PTR _strm$[ebp]
  007b6	52		 push	 edx
  007b7	e8 00 00 00 00	 call	 _flush_pending
  007bc	83 c4 04	 add	 esp, 4

; 691  :                     beg = s->pending;

  007bf	8b 45 fc	 mov	 eax, DWORD PTR _s$[ebp]
  007c2	8b 48 14	 mov	 ecx, DWORD PTR [eax+20]
  007c5	89 4d e8	 mov	 DWORD PTR _beg$77810[ebp], ecx

; 692  :                     if (s->pending == s->pending_buf_size) {

  007c8	8b 55 fc	 mov	 edx, DWORD PTR _s$[ebp]
  007cb	8b 45 fc	 mov	 eax, DWORD PTR _s$[ebp]
  007ce	8b 4a 14	 mov	 ecx, DWORD PTR [edx+20]
  007d1	3b 48 0c	 cmp	 ecx, DWORD PTR [eax+12]
  007d4	75 09		 jne	 SHORT $LN44@deflate

; 693  :                         val = 1;

  007d6	c7 45 e4 01 00
	00 00		 mov	 DWORD PTR _val$77811[ebp], 1

; 694  :                         break;

  007dd	eb 50		 jmp	 SHORT $LN45@deflate
$LN44@deflate:

; 695  :                     }
; 696  :                 }
; 697  :                 val = s->gzhead->name[s->gzindex++];

  007df	8b 55 fc	 mov	 edx, DWORD PTR _s$[ebp]
  007e2	8b 42 1c	 mov	 eax, DWORD PTR [edx+28]
  007e5	8b 48 1c	 mov	 ecx, DWORD PTR [eax+28]
  007e8	8b 55 fc	 mov	 edx, DWORD PTR _s$[ebp]
  007eb	8b 42 20	 mov	 eax, DWORD PTR [edx+32]
  007ee	0f b6 0c 01	 movzx	 ecx, BYTE PTR [ecx+eax]
  007f2	89 4d e4	 mov	 DWORD PTR _val$77811[ebp], ecx
  007f5	8b 55 fc	 mov	 edx, DWORD PTR _s$[ebp]
  007f8	8b 42 20	 mov	 eax, DWORD PTR [edx+32]
  007fb	83 c0 01	 add	 eax, 1
  007fe	8b 4d fc	 mov	 ecx, DWORD PTR _s$[ebp]
  00801	89 41 20	 mov	 DWORD PTR [ecx+32], eax

; 698  :                 put_byte(s, val);

  00804	8b 55 fc	 mov	 edx, DWORD PTR _s$[ebp]
  00807	8b 42 08	 mov	 eax, DWORD PTR [edx+8]
  0080a	8b 4d fc	 mov	 ecx, DWORD PTR _s$[ebp]
  0080d	8b 51 14	 mov	 edx, DWORD PTR [ecx+20]
  00810	8a 4d e4	 mov	 cl, BYTE PTR _val$77811[ebp]
  00813	88 0c 10	 mov	 BYTE PTR [eax+edx], cl
  00816	8b 55 fc	 mov	 edx, DWORD PTR _s$[ebp]
  00819	8b 42 14	 mov	 eax, DWORD PTR [edx+20]
  0081c	83 c0 01	 add	 eax, 1
  0081f	8b 4d fc	 mov	 ecx, DWORD PTR _s$[ebp]
  00822	89 41 14	 mov	 DWORD PTR [ecx+20], eax

; 699  :             } while (val != 0);

  00825	83 7d e4 00	 cmp	 DWORD PTR _val$77811[ebp], 0
  00829	0f 85 39 ff ff
	ff		 jne	 $LN47@deflate
$LN45@deflate:

; 700  :             if (s->gzhead->hcrc && s->pending > beg)

  0082f	8b 55 fc	 mov	 edx, DWORD PTR _s$[ebp]
  00832	8b 42 1c	 mov	 eax, DWORD PTR [edx+28]
  00835	83 78 2c 00	 cmp	 DWORD PTR [eax+44], 0
  00839	74 31		 je	 SHORT $LN41@deflate
  0083b	8b 4d fc	 mov	 ecx, DWORD PTR _s$[ebp]
  0083e	8b 51 14	 mov	 edx, DWORD PTR [ecx+20]
  00841	3b 55 e8	 cmp	 edx, DWORD PTR _beg$77810[ebp]
  00844	76 26		 jbe	 SHORT $LN41@deflate

; 701  :                 strm->adler = crc32(strm->adler, s->pending_buf + beg,
; 702  :                                     s->pending - beg);

  00846	8b 45 fc	 mov	 eax, DWORD PTR _s$[ebp]
  00849	8b 48 14	 mov	 ecx, DWORD PTR [eax+20]
  0084c	2b 4d e8	 sub	 ecx, DWORD PTR _beg$77810[ebp]
  0084f	51		 push	 ecx
  00850	8b 55 fc	 mov	 edx, DWORD PTR _s$[ebp]
  00853	8b 42 08	 mov	 eax, DWORD PTR [edx+8]
  00856	03 45 e8	 add	 eax, DWORD PTR _beg$77810[ebp]
  00859	50		 push	 eax
  0085a	8b 4d 08	 mov	 ecx, DWORD PTR _strm$[ebp]
  0085d	8b 51 30	 mov	 edx, DWORD PTR [ecx+48]
  00860	52		 push	 edx
  00861	e8 00 00 00 00	 call	 _crc32@12
  00866	8b 4d 08	 mov	 ecx, DWORD PTR _strm$[ebp]
  00869	89 41 30	 mov	 DWORD PTR [ecx+48], eax
$LN41@deflate:

; 703  :             if (val == 0) {

  0086c	83 7d e4 00	 cmp	 DWORD PTR _val$77811[ebp], 0
  00870	75 14		 jne	 SHORT $LN40@deflate

; 704  :                 s->gzindex = 0;

  00872	8b 55 fc	 mov	 edx, DWORD PTR _s$[ebp]
  00875	c7 42 20 00 00
	00 00		 mov	 DWORD PTR [edx+32], 0

; 705  :                 s->status = COMMENT_STATE;

  0087c	8b 45 fc	 mov	 eax, DWORD PTR _s$[ebp]
  0087f	c7 40 04 5b 00
	00 00		 mov	 DWORD PTR [eax+4], 91	; 0000005bH
$LN40@deflate:

; 706  :             }
; 707  :         }
; 708  :         else

  00886	eb 0a		 jmp	 SHORT $LN49@deflate
$LN48@deflate:

; 709  :             s->status = COMMENT_STATE;

  00888	8b 4d fc	 mov	 ecx, DWORD PTR _s$[ebp]
  0088b	c7 41 04 5b 00
	00 00		 mov	 DWORD PTR [ecx+4], 91	; 0000005bH
$LN49@deflate:

; 710  :     }
; 711  :     if (s->status == COMMENT_STATE) {

  00892	8b 55 fc	 mov	 edx, DWORD PTR _s$[ebp]
  00895	83 7a 04 5b	 cmp	 DWORD PTR [edx+4], 91	; 0000005bH
  00899	0f 85 39 01 00
	00		 jne	 $LN38@deflate

; 712  :         if (s->gzhead->comment != NULL) {

  0089f	8b 45 fc	 mov	 eax, DWORD PTR _s$[ebp]
  008a2	8b 48 1c	 mov	 ecx, DWORD PTR [eax+28]
  008a5	83 79 24 00	 cmp	 DWORD PTR [ecx+36], 0
  008a9	0f 84 1f 01 00
	00		 je	 $LN37@deflate

; 713  :             uInt beg = s->pending;  /* start of bytes to update crc */

  008af	8b 55 fc	 mov	 edx, DWORD PTR _s$[ebp]
  008b2	8b 42 14	 mov	 eax, DWORD PTR [edx+20]
  008b5	89 45 e0	 mov	 DWORD PTR _beg$77824[ebp], eax
$LN36@deflate:

; 714  :             int val;
; 715  : 
; 716  :             do {
; 717  :                 if (s->pending == s->pending_buf_size) {

  008b8	8b 4d fc	 mov	 ecx, DWORD PTR _s$[ebp]
  008bb	8b 55 fc	 mov	 edx, DWORD PTR _s$[ebp]
  008be	8b 41 14	 mov	 eax, DWORD PTR [ecx+20]
  008c1	3b 42 0c	 cmp	 eax, DWORD PTR [edx+12]
  008c4	75 69		 jne	 SHORT $LN33@deflate

; 718  :                     if (s->gzhead->hcrc && s->pending > beg)

  008c6	8b 4d fc	 mov	 ecx, DWORD PTR _s$[ebp]
  008c9	8b 51 1c	 mov	 edx, DWORD PTR [ecx+28]
  008cc	83 7a 2c 00	 cmp	 DWORD PTR [edx+44], 0
  008d0	74 31		 je	 SHORT $LN32@deflate
  008d2	8b 45 fc	 mov	 eax, DWORD PTR _s$[ebp]
  008d5	8b 48 14	 mov	 ecx, DWORD PTR [eax+20]
  008d8	3b 4d e0	 cmp	 ecx, DWORD PTR _beg$77824[ebp]
  008db	76 26		 jbe	 SHORT $LN32@deflate

; 719  :                         strm->adler = crc32(strm->adler, s->pending_buf + beg,
; 720  :                                             s->pending - beg);

  008dd	8b 55 fc	 mov	 edx, DWORD PTR _s$[ebp]
  008e0	8b 42 14	 mov	 eax, DWORD PTR [edx+20]
  008e3	2b 45 e0	 sub	 eax, DWORD PTR _beg$77824[ebp]
  008e6	50		 push	 eax
  008e7	8b 4d fc	 mov	 ecx, DWORD PTR _s$[ebp]
  008ea	8b 51 08	 mov	 edx, DWORD PTR [ecx+8]
  008ed	03 55 e0	 add	 edx, DWORD PTR _beg$77824[ebp]
  008f0	52		 push	 edx
  008f1	8b 45 08	 mov	 eax, DWORD PTR _strm$[ebp]
  008f4	8b 48 30	 mov	 ecx, DWORD PTR [eax+48]
  008f7	51		 push	 ecx
  008f8	e8 00 00 00 00	 call	 _crc32@12
  008fd	8b 55 08	 mov	 edx, DWORD PTR _strm$[ebp]
  00900	89 42 30	 mov	 DWORD PTR [edx+48], eax
$LN32@deflate:

; 721  :                     flush_pending(strm);

  00903	8b 45 08	 mov	 eax, DWORD PTR _strm$[ebp]
  00906	50		 push	 eax
  00907	e8 00 00 00 00	 call	 _flush_pending
  0090c	83 c4 04	 add	 esp, 4

; 722  :                     beg = s->pending;

  0090f	8b 4d fc	 mov	 ecx, DWORD PTR _s$[ebp]
  00912	8b 51 14	 mov	 edx, DWORD PTR [ecx+20]
  00915	89 55 e0	 mov	 DWORD PTR _beg$77824[ebp], edx

; 723  :                     if (s->pending == s->pending_buf_size) {

  00918	8b 45 fc	 mov	 eax, DWORD PTR _s$[ebp]
  0091b	8b 4d fc	 mov	 ecx, DWORD PTR _s$[ebp]
  0091e	8b 50 14	 mov	 edx, DWORD PTR [eax+20]
  00921	3b 51 0c	 cmp	 edx, DWORD PTR [ecx+12]
  00924	75 09		 jne	 SHORT $LN33@deflate

; 724  :                         val = 1;

  00926	c7 45 dc 01 00
	00 00		 mov	 DWORD PTR _val$77825[ebp], 1

; 725  :                         break;

  0092d	eb 50		 jmp	 SHORT $LN34@deflate
$LN33@deflate:

; 726  :                     }
; 727  :                 }
; 728  :                 val = s->gzhead->comment[s->gzindex++];

  0092f	8b 45 fc	 mov	 eax, DWORD PTR _s$[ebp]
  00932	8b 48 1c	 mov	 ecx, DWORD PTR [eax+28]
  00935	8b 51 24	 mov	 edx, DWORD PTR [ecx+36]
  00938	8b 45 fc	 mov	 eax, DWORD PTR _s$[ebp]
  0093b	8b 48 20	 mov	 ecx, DWORD PTR [eax+32]
  0093e	0f b6 14 0a	 movzx	 edx, BYTE PTR [edx+ecx]
  00942	89 55 dc	 mov	 DWORD PTR _val$77825[ebp], edx
  00945	8b 45 fc	 mov	 eax, DWORD PTR _s$[ebp]
  00948	8b 48 20	 mov	 ecx, DWORD PTR [eax+32]
  0094b	83 c1 01	 add	 ecx, 1
  0094e	8b 55 fc	 mov	 edx, DWORD PTR _s$[ebp]
  00951	89 4a 20	 mov	 DWORD PTR [edx+32], ecx

; 729  :                 put_byte(s, val);

  00954	8b 45 fc	 mov	 eax, DWORD PTR _s$[ebp]
  00957	8b 48 08	 mov	 ecx, DWORD PTR [eax+8]
  0095a	8b 55 fc	 mov	 edx, DWORD PTR _s$[ebp]
  0095d	8b 42 14	 mov	 eax, DWORD PTR [edx+20]
  00960	8a 55 dc	 mov	 dl, BYTE PTR _val$77825[ebp]
  00963	88 14 01	 mov	 BYTE PTR [ecx+eax], dl
  00966	8b 45 fc	 mov	 eax, DWORD PTR _s$[ebp]
  00969	8b 48 14	 mov	 ecx, DWORD PTR [eax+20]
  0096c	83 c1 01	 add	 ecx, 1
  0096f	8b 55 fc	 mov	 edx, DWORD PTR _s$[ebp]
  00972	89 4a 14	 mov	 DWORD PTR [edx+20], ecx

; 730  :             } while (val != 0);

  00975	83 7d dc 00	 cmp	 DWORD PTR _val$77825[ebp], 0
  00979	0f 85 39 ff ff
	ff		 jne	 $LN36@deflate
$LN34@deflate:

; 731  :             if (s->gzhead->hcrc && s->pending > beg)

  0097f	8b 45 fc	 mov	 eax, DWORD PTR _s$[ebp]
  00982	8b 48 1c	 mov	 ecx, DWORD PTR [eax+28]
  00985	83 79 2c 00	 cmp	 DWORD PTR [ecx+44], 0
  00989	74 31		 je	 SHORT $LN30@deflate
  0098b	8b 55 fc	 mov	 edx, DWORD PTR _s$[ebp]
  0098e	8b 42 14	 mov	 eax, DWORD PTR [edx+20]
  00991	3b 45 e0	 cmp	 eax, DWORD PTR _beg$77824[ebp]
  00994	76 26		 jbe	 SHORT $LN30@deflate

; 732  :                 strm->adler = crc32(strm->adler, s->pending_buf + beg,
; 733  :                                     s->pending - beg);

  00996	8b 4d fc	 mov	 ecx, DWORD PTR _s$[ebp]
  00999	8b 51 14	 mov	 edx, DWORD PTR [ecx+20]
  0099c	2b 55 e0	 sub	 edx, DWORD PTR _beg$77824[ebp]
  0099f	52		 push	 edx
  009a0	8b 45 fc	 mov	 eax, DWORD PTR _s$[ebp]
  009a3	8b 48 08	 mov	 ecx, DWORD PTR [eax+8]
  009a6	03 4d e0	 add	 ecx, DWORD PTR _beg$77824[ebp]
  009a9	51		 push	 ecx
  009aa	8b 55 08	 mov	 edx, DWORD PTR _strm$[ebp]
  009ad	8b 42 30	 mov	 eax, DWORD PTR [edx+48]
  009b0	50		 push	 eax
  009b1	e8 00 00 00 00	 call	 _crc32@12
  009b6	8b 4d 08	 mov	 ecx, DWORD PTR _strm$[ebp]
  009b9	89 41 30	 mov	 DWORD PTR [ecx+48], eax
$LN30@deflate:

; 734  :             if (val == 0)

  009bc	83 7d dc 00	 cmp	 DWORD PTR _val$77825[ebp], 0
  009c0	75 0a		 jne	 SHORT $LN29@deflate

; 735  :                 s->status = HCRC_STATE;

  009c2	8b 55 fc	 mov	 edx, DWORD PTR _s$[ebp]
  009c5	c7 42 04 67 00
	00 00		 mov	 DWORD PTR [edx+4], 103	; 00000067H
$LN29@deflate:

; 736  :         }
; 737  :         else

  009cc	eb 0a		 jmp	 SHORT $LN38@deflate
$LN37@deflate:

; 738  :             s->status = HCRC_STATE;

  009ce	8b 45 fc	 mov	 eax, DWORD PTR _s$[ebp]
  009d1	c7 40 04 67 00
	00 00		 mov	 DWORD PTR [eax+4], 103	; 00000067H
$LN38@deflate:

; 739  :     }
; 740  :     if (s->status == HCRC_STATE) {

  009d8	8b 4d fc	 mov	 ecx, DWORD PTR _s$[ebp]
  009db	83 79 04 67	 cmp	 DWORD PTR [ecx+4], 103	; 00000067H
  009df	0f 85 ba 00 00
	00		 jne	 $LN27@deflate

; 741  :         if (s->gzhead->hcrc) {

  009e5	8b 55 fc	 mov	 edx, DWORD PTR _s$[ebp]
  009e8	8b 42 1c	 mov	 eax, DWORD PTR [edx+28]
  009eb	83 78 2c 00	 cmp	 DWORD PTR [eax+44], 0
  009ef	0f 84 a0 00 00
	00		 je	 $LN26@deflate

; 742  :             if (s->pending + 2 > s->pending_buf_size)

  009f5	8b 4d fc	 mov	 ecx, DWORD PTR _s$[ebp]
  009f8	8b 51 14	 mov	 edx, DWORD PTR [ecx+20]
  009fb	83 c2 02	 add	 edx, 2
  009fe	8b 45 fc	 mov	 eax, DWORD PTR _s$[ebp]
  00a01	3b 50 0c	 cmp	 edx, DWORD PTR [eax+12]
  00a04	76 0c		 jbe	 SHORT $LN25@deflate

; 743  :                 flush_pending(strm);

  00a06	8b 4d 08	 mov	 ecx, DWORD PTR _strm$[ebp]
  00a09	51		 push	 ecx
  00a0a	e8 00 00 00 00	 call	 _flush_pending
  00a0f	83 c4 04	 add	 esp, 4
$LN25@deflate:

; 744  :             if (s->pending + 2 <= s->pending_buf_size) {

  00a12	8b 55 fc	 mov	 edx, DWORD PTR _s$[ebp]
  00a15	8b 42 14	 mov	 eax, DWORD PTR [edx+20]
  00a18	83 c0 02	 add	 eax, 2
  00a1b	8b 4d fc	 mov	 ecx, DWORD PTR _s$[ebp]
  00a1e	3b 41 0c	 cmp	 eax, DWORD PTR [ecx+12]
  00a21	77 70		 ja	 SHORT $LN24@deflate

; 745  :                 put_byte(s, (Byte)(strm->adler & 0xff));

  00a23	8b 55 08	 mov	 edx, DWORD PTR _strm$[ebp]
  00a26	8b 42 30	 mov	 eax, DWORD PTR [edx+48]
  00a29	25 ff 00 00 00	 and	 eax, 255		; 000000ffH
  00a2e	8b 4d fc	 mov	 ecx, DWORD PTR _s$[ebp]
  00a31	8b 51 08	 mov	 edx, DWORD PTR [ecx+8]
  00a34	8b 4d fc	 mov	 ecx, DWORD PTR _s$[ebp]
  00a37	8b 49 14	 mov	 ecx, DWORD PTR [ecx+20]
  00a3a	88 04 0a	 mov	 BYTE PTR [edx+ecx], al
  00a3d	8b 55 fc	 mov	 edx, DWORD PTR _s$[ebp]
  00a40	8b 42 14	 mov	 eax, DWORD PTR [edx+20]
  00a43	83 c0 01	 add	 eax, 1
  00a46	8b 4d fc	 mov	 ecx, DWORD PTR _s$[ebp]
  00a49	89 41 14	 mov	 DWORD PTR [ecx+20], eax

; 746  :                 put_byte(s, (Byte)((strm->adler >> 8) & 0xff));

  00a4c	8b 55 08	 mov	 edx, DWORD PTR _strm$[ebp]
  00a4f	8b 42 30	 mov	 eax, DWORD PTR [edx+48]
  00a52	c1 e8 08	 shr	 eax, 8
  00a55	25 ff 00 00 00	 and	 eax, 255		; 000000ffH
  00a5a	8b 4d fc	 mov	 ecx, DWORD PTR _s$[ebp]
  00a5d	8b 51 08	 mov	 edx, DWORD PTR [ecx+8]
  00a60	8b 4d fc	 mov	 ecx, DWORD PTR _s$[ebp]
  00a63	8b 49 14	 mov	 ecx, DWORD PTR [ecx+20]
  00a66	88 04 0a	 mov	 BYTE PTR [edx+ecx], al
  00a69	8b 55 fc	 mov	 edx, DWORD PTR _s$[ebp]
  00a6c	8b 42 14	 mov	 eax, DWORD PTR [edx+20]
  00a6f	83 c0 01	 add	 eax, 1
  00a72	8b 4d fc	 mov	 ecx, DWORD PTR _s$[ebp]
  00a75	89 41 14	 mov	 DWORD PTR [ecx+20], eax

; 747  :                 strm->adler = crc32(0L, Z_NULL, 0);

  00a78	6a 00		 push	 0
  00a7a	6a 00		 push	 0
  00a7c	6a 00		 push	 0
  00a7e	e8 00 00 00 00	 call	 _crc32@12
  00a83	8b 55 08	 mov	 edx, DWORD PTR _strm$[ebp]
  00a86	89 42 30	 mov	 DWORD PTR [edx+48], eax

; 748  :                 s->status = BUSY_STATE;

  00a89	8b 45 fc	 mov	 eax, DWORD PTR _s$[ebp]
  00a8c	c7 40 04 71 00
	00 00		 mov	 DWORD PTR [eax+4], 113	; 00000071H
$LN24@deflate:

; 749  :             }
; 750  :         }
; 751  :         else

  00a93	eb 0a		 jmp	 SHORT $LN27@deflate
$LN26@deflate:

; 752  :             s->status = BUSY_STATE;

  00a95	8b 4d fc	 mov	 ecx, DWORD PTR _s$[ebp]
  00a98	c7 41 04 71 00
	00 00		 mov	 DWORD PTR [ecx+4], 113	; 00000071H
$LN27@deflate:

; 753  :     }
; 754  : #endif
; 755  : 
; 756  :     /* Flush as much pending output as possible */
; 757  :     if (s->pending != 0) {

  00a9f	8b 55 fc	 mov	 edx, DWORD PTR _s$[ebp]
  00aa2	83 7a 14 00	 cmp	 DWORD PTR [edx+20], 0
  00aa6	74 28		 je	 SHORT $LN22@deflate

; 758  :         flush_pending(strm);

  00aa8	8b 45 08	 mov	 eax, DWORD PTR _strm$[ebp]
  00aab	50		 push	 eax
  00aac	e8 00 00 00 00	 call	 _flush_pending
  00ab1	83 c4 04	 add	 esp, 4

; 759  :         if (strm->avail_out == 0) {

  00ab4	8b 4d 08	 mov	 ecx, DWORD PTR _strm$[ebp]
  00ab7	83 79 10 00	 cmp	 DWORD PTR [ecx+16], 0
  00abb	75 11		 jne	 SHORT $LN21@deflate

; 760  :             /* Since avail_out is 0, deflate will be called again with
; 761  :              * more output space, but possibly with both pending and
; 762  :              * avail_in equal to zero. There won't be anything to do,
; 763  :              * but this is not an error situation so make sure we
; 764  :              * return OK instead of BUF_ERROR at next call of deflate:
; 765  :              */
; 766  :             s->last_flush = -1;

  00abd	8b 55 fc	 mov	 edx, DWORD PTR _s$[ebp]
  00ac0	c7 42 28 ff ff
	ff ff		 mov	 DWORD PTR [edx+40], -1

; 767  :             return Z_OK;

  00ac7	33 c0		 xor	 eax, eax
  00ac9	e9 5f 03 00 00	 jmp	 $LN82@deflate
$LN21@deflate:

; 768  :         }
; 769  : 
; 770  :     /* Make sure there is something to do and avoid duplicate consecutive
; 771  :      * flushes. For repeated and useless calls with Z_FINISH, we keep
; 772  :      * returning Z_STREAM_END instead of Z_BUF_ERROR.
; 773  :      */
; 774  :     } else if (strm->avail_in == 0 && flush <= old_flush &&

  00ace	eb 2c		 jmp	 SHORT $LN20@deflate
$LN22@deflate:

; 775  :                flush != Z_FINISH) {

  00ad0	8b 45 08	 mov	 eax, DWORD PTR _strm$[ebp]
  00ad3	83 78 04 00	 cmp	 DWORD PTR [eax+4], 0
  00ad7	75 23		 jne	 SHORT $LN20@deflate
  00ad9	8b 4d 0c	 mov	 ecx, DWORD PTR _flush$[ebp]
  00adc	3b 4d f8	 cmp	 ecx, DWORD PTR _old_flush$[ebp]
  00adf	7f 1b		 jg	 SHORT $LN20@deflate
  00ae1	83 7d 0c 04	 cmp	 DWORD PTR _flush$[ebp], 4
  00ae5	74 15		 je	 SHORT $LN20@deflate

; 776  :         ERR_RETURN(strm, Z_BUF_ERROR);

  00ae7	8b 55 08	 mov	 edx, DWORD PTR _strm$[ebp]
  00aea	a1 1c 00 00 00	 mov	 eax, DWORD PTR _z_errmsg+28
  00aef	89 42 18	 mov	 DWORD PTR [edx+24], eax
  00af2	b8 fb ff ff ff	 mov	 eax, -5			; fffffffbH
  00af7	e9 31 03 00 00	 jmp	 $LN82@deflate
$LN20@deflate:

; 777  :     }
; 778  : 
; 779  :     /* User must not provide more input after the first FINISH: */
; 780  :     if (s->status == FINISH_STATE && strm->avail_in != 0) {

  00afc	8b 4d fc	 mov	 ecx, DWORD PTR _s$[ebp]
  00aff	81 79 04 9a 02
	00 00		 cmp	 DWORD PTR [ecx+4], 666	; 0000029aH
  00b06	75 1f		 jne	 SHORT $LN18@deflate
  00b08	8b 55 08	 mov	 edx, DWORD PTR _strm$[ebp]
  00b0b	83 7a 04 00	 cmp	 DWORD PTR [edx+4], 0
  00b0f	74 16		 je	 SHORT $LN18@deflate

; 781  :         ERR_RETURN(strm, Z_BUF_ERROR);

  00b11	8b 45 08	 mov	 eax, DWORD PTR _strm$[ebp]
  00b14	8b 0d 1c 00 00
	00		 mov	 ecx, DWORD PTR _z_errmsg+28
  00b1a	89 48 18	 mov	 DWORD PTR [eax+24], ecx
  00b1d	b8 fb ff ff ff	 mov	 eax, -5			; fffffffbH
  00b22	e9 06 03 00 00	 jmp	 $LN82@deflate
$LN18@deflate:

; 782  :     }
; 783  : 
; 784  :     /* Start a new block or continue the current one.
; 785  :      */
; 786  :     if (strm->avail_in != 0 || s->lookahead != 0 ||
; 787  :         (flush != Z_NO_FLUSH && s->status != FINISH_STATE)) {

  00b27	8b 55 08	 mov	 edx, DWORD PTR _strm$[ebp]
  00b2a	83 7a 04 00	 cmp	 DWORD PTR [edx+4], 0
  00b2e	75 23		 jne	 SHORT $LN16@deflate
  00b30	8b 45 fc	 mov	 eax, DWORD PTR _s$[ebp]
  00b33	83 78 74 00	 cmp	 DWORD PTR [eax+116], 0
  00b37	75 1a		 jne	 SHORT $LN16@deflate
  00b39	83 7d 0c 00	 cmp	 DWORD PTR _flush$[ebp], 0
  00b3d	0f 84 f9 00 00
	00		 je	 $LN17@deflate
  00b43	8b 4d fc	 mov	 ecx, DWORD PTR _s$[ebp]
  00b46	81 79 04 9a 02
	00 00		 cmp	 DWORD PTR [ecx+4], 666	; 0000029aH
  00b4d	0f 84 e9 00 00
	00		 je	 $LN17@deflate
$LN16@deflate:

; 788  :         block_state bstate;
; 789  : 
; 790  :         bstate = (*(configuration_table[s->level].func))(s, flush);

  00b53	8b 55 0c	 mov	 edx, DWORD PTR _flush$[ebp]
  00b56	52		 push	 edx
  00b57	8b 45 fc	 mov	 eax, DWORD PTR _s$[ebp]
  00b5a	50		 push	 eax
  00b5b	8b 4d fc	 mov	 ecx, DWORD PTR _s$[ebp]
  00b5e	8b 91 84 00 00
	00		 mov	 edx, DWORD PTR [ecx+132]
  00b64	6b d2 0c	 imul	 edx, 12			; 0000000cH
  00b67	8b 82 08 00 00
	00		 mov	 eax, DWORD PTR _configuration_table[edx+8]
  00b6d	ff d0		 call	 eax
  00b6f	83 c4 08	 add	 esp, 8
  00b72	89 45 d8	 mov	 DWORD PTR _bstate$77851[ebp], eax

; 791  : 
; 792  :         if (bstate == finish_started || bstate == finish_done) {

  00b75	83 7d d8 02	 cmp	 DWORD PTR _bstate$77851[ebp], 2
  00b79	74 06		 je	 SHORT $LN14@deflate
  00b7b	83 7d d8 03	 cmp	 DWORD PTR _bstate$77851[ebp], 3
  00b7f	75 0a		 jne	 SHORT $LN15@deflate
$LN14@deflate:

; 793  :             s->status = FINISH_STATE;

  00b81	8b 4d fc	 mov	 ecx, DWORD PTR _s$[ebp]
  00b84	c7 41 04 9a 02
	00 00		 mov	 DWORD PTR [ecx+4], 666	; 0000029aH
$LN15@deflate:

; 794  :         }
; 795  :         if (bstate == need_more || bstate == finish_started) {

  00b8b	83 7d d8 00	 cmp	 DWORD PTR _bstate$77851[ebp], 0
  00b8f	74 06		 je	 SHORT $LN12@deflate
  00b91	83 7d d8 02	 cmp	 DWORD PTR _bstate$77851[ebp], 2
  00b95	75 1a		 jne	 SHORT $LN13@deflate
$LN12@deflate:

; 796  :             if (strm->avail_out == 0) {

  00b97	8b 55 08	 mov	 edx, DWORD PTR _strm$[ebp]
  00b9a	83 7a 10 00	 cmp	 DWORD PTR [edx+16], 0
  00b9e	75 0a		 jne	 SHORT $LN11@deflate

; 797  :                 s->last_flush = -1; /* avoid BUF_ERROR next call, see above */

  00ba0	8b 45 fc	 mov	 eax, DWORD PTR _s$[ebp]
  00ba3	c7 40 28 ff ff
	ff ff		 mov	 DWORD PTR [eax+40], -1
$LN11@deflate:

; 798  :             }
; 799  :             return Z_OK;

  00baa	33 c0		 xor	 eax, eax
  00bac	e9 7c 02 00 00	 jmp	 $LN82@deflate
$LN13@deflate:

; 800  :             /* If flush != Z_NO_FLUSH && avail_out == 0, the next call
; 801  :              * of deflate should use the same flush parameter to make sure
; 802  :              * that the flush is complete. So we don't have to output an
; 803  :              * empty block here, this will be done at next call. This also
; 804  :              * ensures that for a very small output buffer, we emit at most
; 805  :              * one empty block.
; 806  :              */
; 807  :         }
; 808  :         if (bstate == block_done) {

  00bb1	83 7d d8 01	 cmp	 DWORD PTR _bstate$77851[ebp], 1
  00bb5	0f 85 81 00 00
	00		 jne	 $LN17@deflate

; 809  :             if (flush == Z_PARTIAL_FLUSH) {

  00bbb	83 7d 0c 01	 cmp	 DWORD PTR _flush$[ebp], 1
  00bbf	75 0e		 jne	 SHORT $LN9@deflate

; 810  :                 _tr_align(s);

  00bc1	8b 4d fc	 mov	 ecx, DWORD PTR _s$[ebp]
  00bc4	51		 push	 ecx
  00bc5	e8 00 00 00 00	 call	 __tr_align
  00bca	83 c4 04	 add	 esp, 4

; 811  :             } else { /* FULL_FLUSH or SYNC_FLUSH */

  00bcd	eb 47		 jmp	 SHORT $LN8@deflate
$LN9@deflate:

; 812  :                 _tr_stored_block(s, (char*)0, 0L, 0);

  00bcf	6a 00		 push	 0
  00bd1	6a 00		 push	 0
  00bd3	6a 00		 push	 0
  00bd5	8b 55 fc	 mov	 edx, DWORD PTR _s$[ebp]
  00bd8	52		 push	 edx
  00bd9	e8 00 00 00 00	 call	 __tr_stored_block
  00bde	83 c4 10	 add	 esp, 16			; 00000010H

; 813  :                 /* For a full flush, this empty block will be recognized
; 814  :                  * as a special marker by inflate_sync().
; 815  :                  */
; 816  :                 if (flush == Z_FULL_FLUSH) {

  00be1	83 7d 0c 03	 cmp	 DWORD PTR _flush$[ebp], 3
  00be5	75 2f		 jne	 SHORT $LN8@deflate

; 817  :                     CLEAR_HASH(s);             /* forget history */

  00be7	8b 45 fc	 mov	 eax, DWORD PTR _s$[ebp]
  00bea	8b 48 4c	 mov	 ecx, DWORD PTR [eax+76]
  00bed	8b 55 fc	 mov	 edx, DWORD PTR _s$[ebp]
  00bf0	8b 42 44	 mov	 eax, DWORD PTR [edx+68]
  00bf3	33 d2		 xor	 edx, edx
  00bf5	66 89 54 48 fe	 mov	 WORD PTR [eax+ecx*2-2], dx
  00bfa	8b 45 fc	 mov	 eax, DWORD PTR _s$[ebp]
  00bfd	8b 48 4c	 mov	 ecx, DWORD PTR [eax+76]
  00c00	8d 54 09 fe	 lea	 edx, DWORD PTR [ecx+ecx-2]
  00c04	52		 push	 edx
  00c05	6a 00		 push	 0
  00c07	8b 45 fc	 mov	 eax, DWORD PTR _s$[ebp]
  00c0a	8b 48 44	 mov	 ecx, DWORD PTR [eax+68]
  00c0d	51		 push	 ecx
  00c0e	e8 00 00 00 00	 call	 _memset
  00c13	83 c4 0c	 add	 esp, 12			; 0000000cH
$LN8@deflate:

; 818  :                 }
; 819  :             }
; 820  :             flush_pending(strm);

  00c16	8b 55 08	 mov	 edx, DWORD PTR _strm$[ebp]
  00c19	52		 push	 edx
  00c1a	e8 00 00 00 00	 call	 _flush_pending
  00c1f	83 c4 04	 add	 esp, 4

; 821  :             if (strm->avail_out == 0) {

  00c22	8b 45 08	 mov	 eax, DWORD PTR _strm$[ebp]
  00c25	83 78 10 00	 cmp	 DWORD PTR [eax+16], 0
  00c29	75 11		 jne	 SHORT $LN17@deflate

; 822  :               s->last_flush = -1; /* avoid BUF_ERROR at next call, see above */

  00c2b	8b 4d fc	 mov	 ecx, DWORD PTR _s$[ebp]
  00c2e	c7 41 28 ff ff
	ff ff		 mov	 DWORD PTR [ecx+40], -1

; 823  :               return Z_OK;

  00c35	33 c0		 xor	 eax, eax
  00c37	e9 f1 01 00 00	 jmp	 $LN82@deflate
$LN17@deflate:

; 824  :             }
; 825  :         }
; 826  :     }
; 827  :     Assert(strm->avail_out > 0, "bug2");
; 828  : 
; 829  :     if (flush != Z_FINISH) return Z_OK;

  00c3c	83 7d 0c 04	 cmp	 DWORD PTR _flush$[ebp], 4
  00c40	74 07		 je	 SHORT $LN5@deflate
  00c42	33 c0		 xor	 eax, eax
  00c44	e9 e4 01 00 00	 jmp	 $LN82@deflate
$LN5@deflate:

; 830  :     if (s->wrap <= 0) return Z_STREAM_END;

  00c49	8b 55 fc	 mov	 edx, DWORD PTR _s$[ebp]
  00c4c	83 7a 18 00	 cmp	 DWORD PTR [edx+24], 0
  00c50	7f 0a		 jg	 SHORT $LN4@deflate
  00c52	b8 01 00 00 00	 mov	 eax, 1
  00c57	e9 d1 01 00 00	 jmp	 $LN82@deflate
$LN4@deflate:

; 831  : 
; 832  :     /* Write the trailer */
; 833  : #ifdef GZIP
; 834  :     if (s->wrap == 2) {

  00c5c	8b 45 fc	 mov	 eax, DWORD PTR _s$[ebp]
  00c5f	83 78 18 02	 cmp	 DWORD PTR [eax+24], 2
  00c63	0f 85 64 01 00
	00		 jne	 $LN3@deflate

; 835  :         put_byte(s, (Byte)(strm->adler & 0xff));

  00c69	8b 4d 08	 mov	 ecx, DWORD PTR _strm$[ebp]
  00c6c	8b 51 30	 mov	 edx, DWORD PTR [ecx+48]
  00c6f	81 e2 ff 00 00
	00		 and	 edx, 255		; 000000ffH
  00c75	8b 45 fc	 mov	 eax, DWORD PTR _s$[ebp]
  00c78	8b 48 08	 mov	 ecx, DWORD PTR [eax+8]
  00c7b	8b 45 fc	 mov	 eax, DWORD PTR _s$[ebp]
  00c7e	8b 40 14	 mov	 eax, DWORD PTR [eax+20]
  00c81	88 14 01	 mov	 BYTE PTR [ecx+eax], dl
  00c84	8b 4d fc	 mov	 ecx, DWORD PTR _s$[ebp]
  00c87	8b 51 14	 mov	 edx, DWORD PTR [ecx+20]
  00c8a	83 c2 01	 add	 edx, 1
  00c8d	8b 45 fc	 mov	 eax, DWORD PTR _s$[ebp]
  00c90	89 50 14	 mov	 DWORD PTR [eax+20], edx

; 836  :         put_byte(s, (Byte)((strm->adler >> 8) & 0xff));

  00c93	8b 4d 08	 mov	 ecx, DWORD PTR _strm$[ebp]
  00c96	8b 51 30	 mov	 edx, DWORD PTR [ecx+48]
  00c99	c1 ea 08	 shr	 edx, 8
  00c9c	81 e2 ff 00 00
	00		 and	 edx, 255		; 000000ffH
  00ca2	8b 45 fc	 mov	 eax, DWORD PTR _s$[ebp]
  00ca5	8b 48 08	 mov	 ecx, DWORD PTR [eax+8]
  00ca8	8b 45 fc	 mov	 eax, DWORD PTR _s$[ebp]
  00cab	8b 40 14	 mov	 eax, DWORD PTR [eax+20]
  00cae	88 14 01	 mov	 BYTE PTR [ecx+eax], dl
  00cb1	8b 4d fc	 mov	 ecx, DWORD PTR _s$[ebp]
  00cb4	8b 51 14	 mov	 edx, DWORD PTR [ecx+20]
  00cb7	83 c2 01	 add	 edx, 1
  00cba	8b 45 fc	 mov	 eax, DWORD PTR _s$[ebp]
  00cbd	89 50 14	 mov	 DWORD PTR [eax+20], edx

; 837  :         put_byte(s, (Byte)((strm->adler >> 16) & 0xff));

  00cc0	8b 4d 08	 mov	 ecx, DWORD PTR _strm$[ebp]
  00cc3	8b 51 30	 mov	 edx, DWORD PTR [ecx+48]
  00cc6	c1 ea 10	 shr	 edx, 16			; 00000010H
  00cc9	81 e2 ff 00 00
	00		 and	 edx, 255		; 000000ffH
  00ccf	8b 45 fc	 mov	 eax, DWORD PTR _s$[ebp]
  00cd2	8b 48 08	 mov	 ecx, DWORD PTR [eax+8]
  00cd5	8b 45 fc	 mov	 eax, DWORD PTR _s$[ebp]
  00cd8	8b 40 14	 mov	 eax, DWORD PTR [eax+20]
  00cdb	88 14 01	 mov	 BYTE PTR [ecx+eax], dl
  00cde	8b 4d fc	 mov	 ecx, DWORD PTR _s$[ebp]
  00ce1	8b 51 14	 mov	 edx, DWORD PTR [ecx+20]
  00ce4	83 c2 01	 add	 edx, 1
  00ce7	8b 45 fc	 mov	 eax, DWORD PTR _s$[ebp]
  00cea	89 50 14	 mov	 DWORD PTR [eax+20], edx

; 838  :         put_byte(s, (Byte)((strm->adler >> 24) & 0xff));

  00ced	8b 4d 08	 mov	 ecx, DWORD PTR _strm$[ebp]
  00cf0	8b 51 30	 mov	 edx, DWORD PTR [ecx+48]
  00cf3	c1 ea 18	 shr	 edx, 24			; 00000018H
  00cf6	81 e2 ff 00 00
	00		 and	 edx, 255		; 000000ffH
  00cfc	8b 45 fc	 mov	 eax, DWORD PTR _s$[ebp]
  00cff	8b 48 08	 mov	 ecx, DWORD PTR [eax+8]
  00d02	8b 45 fc	 mov	 eax, DWORD PTR _s$[ebp]
  00d05	8b 40 14	 mov	 eax, DWORD PTR [eax+20]
  00d08	88 14 01	 mov	 BYTE PTR [ecx+eax], dl
  00d0b	8b 4d fc	 mov	 ecx, DWORD PTR _s$[ebp]
  00d0e	8b 51 14	 mov	 edx, DWORD PTR [ecx+20]
  00d11	83 c2 01	 add	 edx, 1
  00d14	8b 45 fc	 mov	 eax, DWORD PTR _s$[ebp]
  00d17	89 50 14	 mov	 DWORD PTR [eax+20], edx

; 839  :         put_byte(s, (Byte)(strm->total_in & 0xff));

  00d1a	8b 4d 08	 mov	 ecx, DWORD PTR _strm$[ebp]
  00d1d	8b 51 08	 mov	 edx, DWORD PTR [ecx+8]
  00d20	81 e2 ff 00 00
	00		 and	 edx, 255		; 000000ffH
  00d26	8b 45 fc	 mov	 eax, DWORD PTR _s$[ebp]
  00d29	8b 48 08	 mov	 ecx, DWORD PTR [eax+8]
  00d2c	8b 45 fc	 mov	 eax, DWORD PTR _s$[ebp]
  00d2f	8b 40 14	 mov	 eax, DWORD PTR [eax+20]
  00d32	88 14 01	 mov	 BYTE PTR [ecx+eax], dl
  00d35	8b 4d fc	 mov	 ecx, DWORD PTR _s$[ebp]
  00d38	8b 51 14	 mov	 edx, DWORD PTR [ecx+20]
  00d3b	83 c2 01	 add	 edx, 1
  00d3e	8b 45 fc	 mov	 eax, DWORD PTR _s$[ebp]
  00d41	89 50 14	 mov	 DWORD PTR [eax+20], edx

; 840  :         put_byte(s, (Byte)((strm->total_in >> 8) & 0xff));

  00d44	8b 4d 08	 mov	 ecx, DWORD PTR _strm$[ebp]
  00d47	8b 51 08	 mov	 edx, DWORD PTR [ecx+8]
  00d4a	c1 ea 08	 shr	 edx, 8
  00d4d	81 e2 ff 00 00
	00		 and	 edx, 255		; 000000ffH
  00d53	8b 45 fc	 mov	 eax, DWORD PTR _s$[ebp]
  00d56	8b 48 08	 mov	 ecx, DWORD PTR [eax+8]
  00d59	8b 45 fc	 mov	 eax, DWORD PTR _s$[ebp]
  00d5c	8b 40 14	 mov	 eax, DWORD PTR [eax+20]
  00d5f	88 14 01	 mov	 BYTE PTR [ecx+eax], dl
  00d62	8b 4d fc	 mov	 ecx, DWORD PTR _s$[ebp]
  00d65	8b 51 14	 mov	 edx, DWORD PTR [ecx+20]
  00d68	83 c2 01	 add	 edx, 1
  00d6b	8b 45 fc	 mov	 eax, DWORD PTR _s$[ebp]
  00d6e	89 50 14	 mov	 DWORD PTR [eax+20], edx

; 841  :         put_byte(s, (Byte)((strm->total_in >> 16) & 0xff));

  00d71	8b 4d 08	 mov	 ecx, DWORD PTR _strm$[ebp]
  00d74	8b 51 08	 mov	 edx, DWORD PTR [ecx+8]
  00d77	c1 ea 10	 shr	 edx, 16			; 00000010H
  00d7a	81 e2 ff 00 00
	00		 and	 edx, 255		; 000000ffH
  00d80	8b 45 fc	 mov	 eax, DWORD PTR _s$[ebp]
  00d83	8b 48 08	 mov	 ecx, DWORD PTR [eax+8]
  00d86	8b 45 fc	 mov	 eax, DWORD PTR _s$[ebp]
  00d89	8b 40 14	 mov	 eax, DWORD PTR [eax+20]
  00d8c	88 14 01	 mov	 BYTE PTR [ecx+eax], dl
  00d8f	8b 4d fc	 mov	 ecx, DWORD PTR _s$[ebp]
  00d92	8b 51 14	 mov	 edx, DWORD PTR [ecx+20]
  00d95	83 c2 01	 add	 edx, 1
  00d98	8b 45 fc	 mov	 eax, DWORD PTR _s$[ebp]
  00d9b	89 50 14	 mov	 DWORD PTR [eax+20], edx

; 842  :         put_byte(s, (Byte)((strm->total_in >> 24) & 0xff));

  00d9e	8b 4d 08	 mov	 ecx, DWORD PTR _strm$[ebp]
  00da1	8b 51 08	 mov	 edx, DWORD PTR [ecx+8]
  00da4	c1 ea 18	 shr	 edx, 24			; 00000018H
  00da7	81 e2 ff 00 00
	00		 and	 edx, 255		; 000000ffH
  00dad	8b 45 fc	 mov	 eax, DWORD PTR _s$[ebp]
  00db0	8b 48 08	 mov	 ecx, DWORD PTR [eax+8]
  00db3	8b 45 fc	 mov	 eax, DWORD PTR _s$[ebp]
  00db6	8b 40 14	 mov	 eax, DWORD PTR [eax+20]
  00db9	88 14 01	 mov	 BYTE PTR [ecx+eax], dl
  00dbc	8b 4d fc	 mov	 ecx, DWORD PTR _s$[ebp]
  00dbf	8b 51 14	 mov	 edx, DWORD PTR [ecx+20]
  00dc2	83 c2 01	 add	 edx, 1
  00dc5	8b 45 fc	 mov	 eax, DWORD PTR _s$[ebp]
  00dc8	89 50 14	 mov	 DWORD PTR [eax+20], edx

; 843  :     }
; 844  :     else

  00dcb	eb 2f		 jmp	 SHORT $LN2@deflate
$LN3@deflate:

; 845  : #endif
; 846  :     {
; 847  :         putShortMSB(s, (uInt)(strm->adler >> 16));

  00dcd	8b 4d 08	 mov	 ecx, DWORD PTR _strm$[ebp]
  00dd0	8b 51 30	 mov	 edx, DWORD PTR [ecx+48]
  00dd3	c1 ea 10	 shr	 edx, 16			; 00000010H
  00dd6	52		 push	 edx
  00dd7	8b 45 fc	 mov	 eax, DWORD PTR _s$[ebp]
  00dda	50		 push	 eax
  00ddb	e8 00 00 00 00	 call	 _putShortMSB
  00de0	83 c4 08	 add	 esp, 8

; 848  :         putShortMSB(s, (uInt)(strm->adler & 0xffff));

  00de3	8b 4d 08	 mov	 ecx, DWORD PTR _strm$[ebp]
  00de6	8b 51 30	 mov	 edx, DWORD PTR [ecx+48]
  00de9	81 e2 ff ff 00
	00		 and	 edx, 65535		; 0000ffffH
  00def	52		 push	 edx
  00df0	8b 45 fc	 mov	 eax, DWORD PTR _s$[ebp]
  00df3	50		 push	 eax
  00df4	e8 00 00 00 00	 call	 _putShortMSB
  00df9	83 c4 08	 add	 esp, 8
$LN2@deflate:

; 849  :     }
; 850  :     flush_pending(strm);

  00dfc	8b 4d 08	 mov	 ecx, DWORD PTR _strm$[ebp]
  00dff	51		 push	 ecx
  00e00	e8 00 00 00 00	 call	 _flush_pending
  00e05	83 c4 04	 add	 esp, 4

; 851  :     /* If avail_out is zero, the application will call deflate again
; 852  :      * to flush the rest.
; 853  :      */
; 854  :     if (s->wrap > 0) s->wrap = -s->wrap; /* write the trailer only once! */

  00e08	8b 55 fc	 mov	 edx, DWORD PTR _s$[ebp]
  00e0b	83 7a 18 00	 cmp	 DWORD PTR [edx+24], 0
  00e0f	7e 0e		 jle	 SHORT $LN1@deflate
  00e11	8b 45 fc	 mov	 eax, DWORD PTR _s$[ebp]
  00e14	8b 48 18	 mov	 ecx, DWORD PTR [eax+24]
  00e17	f7 d9		 neg	 ecx
  00e19	8b 55 fc	 mov	 edx, DWORD PTR _s$[ebp]
  00e1c	89 4a 18	 mov	 DWORD PTR [edx+24], ecx
$LN1@deflate:

; 855  :     return s->pending != 0 ? Z_OK : Z_STREAM_END;

  00e1f	8b 45 fc	 mov	 eax, DWORD PTR _s$[ebp]
  00e22	33 c9		 xor	 ecx, ecx
  00e24	83 78 14 00	 cmp	 DWORD PTR [eax+20], 0
  00e28	0f 94 c1	 sete	 cl
  00e2b	8b c1		 mov	 eax, ecx
$LN82@deflate:

; 856  : }

  00e2d	5e		 pop	 esi
  00e2e	8b e5		 mov	 esp, ebp
  00e30	5d		 pop	 ebp
  00e31	c2 08 00	 ret	 8
_deflate@8 ENDP
_TEXT	ENDS
PUBLIC	_deflateBound@8
; Function compile flags: /Odtp
;	COMDAT _deflateBound@8
_TEXT	SEGMENT
_s$ = -8						; size = 4
_destLen$ = -4						; size = 4
_strm$ = 8						; size = 4
_sourceLen$ = 12					; size = 4
_deflateBound@8 PROC					; COMDAT

; 492  : {

  00000	55		 push	 ebp
  00001	8b ec		 mov	 ebp, esp
  00003	83 ec 08	 sub	 esp, 8

; 493  :     deflate_state *s;
; 494  :     uLong destLen;
; 495  : 
; 496  :     /* conservative upper bound */
; 497  :     destLen = sourceLen +
; 498  :               ((sourceLen + 7) >> 3) + ((sourceLen + 63) >> 6) + 11;

  00006	8b 45 0c	 mov	 eax, DWORD PTR _sourceLen$[ebp]
  00009	83 c0 07	 add	 eax, 7
  0000c	c1 e8 03	 shr	 eax, 3
  0000f	03 45 0c	 add	 eax, DWORD PTR _sourceLen$[ebp]
  00012	8b 4d 0c	 mov	 ecx, DWORD PTR _sourceLen$[ebp]
  00015	83 c1 3f	 add	 ecx, 63			; 0000003fH
  00018	c1 e9 06	 shr	 ecx, 6
  0001b	8d 54 08 0b	 lea	 edx, DWORD PTR [eax+ecx+11]
  0001f	89 55 fc	 mov	 DWORD PTR _destLen$[ebp], edx

; 499  : 
; 500  :     /* if can't get parameters, return conservative bound */
; 501  :     if (strm == Z_NULL || strm->state == Z_NULL)

  00022	83 7d 08 00	 cmp	 DWORD PTR _strm$[ebp], 0
  00026	74 09		 je	 SHORT $LN3@deflateBou
  00028	8b 45 08	 mov	 eax, DWORD PTR _strm$[ebp]
  0002b	83 78 1c 00	 cmp	 DWORD PTR [eax+28], 0
  0002f	75 05		 jne	 SHORT $LN4@deflateBou
$LN3@deflateBou:

; 502  :         return destLen;

  00031	8b 45 fc	 mov	 eax, DWORD PTR _destLen$[ebp]
  00034	eb 29		 jmp	 SHORT $LN5@deflateBou
$LN4@deflateBou:

; 503  : 
; 504  :     /* if not default parameters, return conservative bound */
; 505  :     s = strm->state;

  00036	8b 4d 08	 mov	 ecx, DWORD PTR _strm$[ebp]
  00039	8b 51 1c	 mov	 edx, DWORD PTR [ecx+28]
  0003c	89 55 f8	 mov	 DWORD PTR _s$[ebp], edx

; 506  :     if (s->w_bits != 15 || s->hash_bits != 8 + 7)

  0003f	8b 45 f8	 mov	 eax, DWORD PTR _s$[ebp]
  00042	83 78 30 0f	 cmp	 DWORD PTR [eax+48], 15	; 0000000fH
  00046	75 09		 jne	 SHORT $LN1@deflateBou
  00048	8b 4d f8	 mov	 ecx, DWORD PTR _s$[ebp]
  0004b	83 79 50 0f	 cmp	 DWORD PTR [ecx+80], 15	; 0000000fH
  0004f	74 05		 je	 SHORT $LN2@deflateBou
$LN1@deflateBou:

; 507  :         return destLen;

  00051	8b 45 fc	 mov	 eax, DWORD PTR _destLen$[ebp]
  00054	eb 09		 jmp	 SHORT $LN5@deflateBou
$LN2@deflateBou:

; 508  : 
; 509  :     /* default settings: return tight bound for that case */
; 510  :     return compressBound(sourceLen);

  00056	8b 55 0c	 mov	 edx, DWORD PTR _sourceLen$[ebp]
  00059	52		 push	 edx
  0005a	e8 00 00 00 00	 call	 _compressBound@4
$LN5@deflateBou:

; 511  : }

  0005f	8b e5		 mov	 esp, ebp
  00061	5d		 pop	 ebp
  00062	c2 08 00	 ret	 8
_deflateBound@8 ENDP
_TEXT	ENDS
PUBLIC	_deflateParams@12
; Function compile flags: /Odtp
;	COMDAT _deflateParams@12
_TEXT	SEGMENT
_func$ = -12						; size = 4
_err$ = -8						; size = 4
_s$ = -4						; size = 4
_strm$ = 8						; size = 4
_level$ = 12						; size = 4
_strategy$ = 16						; size = 4
_deflateParams@12 PROC					; COMDAT

; 420  : {

  00000	55		 push	 ebp
  00001	8b ec		 mov	 ebp, esp
  00003	83 ec 0c	 sub	 esp, 12			; 0000000cH

; 421  :     deflate_state *s;
; 422  :     compress_func func;
; 423  :     int err = Z_OK;

  00006	c7 45 f8 00 00
	00 00		 mov	 DWORD PTR _err$[ebp], 0

; 424  : 
; 425  :     if (strm == Z_NULL || strm->state == Z_NULL) return Z_STREAM_ERROR;

  0000d	83 7d 08 00	 cmp	 DWORD PTR _strm$[ebp], 0
  00011	74 09		 je	 SHORT $LN6@deflatePar
  00013	8b 45 08	 mov	 eax, DWORD PTR _strm$[ebp]
  00016	83 78 1c 00	 cmp	 DWORD PTR [eax+28], 0
  0001a	75 0a		 jne	 SHORT $LN7@deflatePar
$LN6@deflatePar:
  0001c	b8 fe ff ff ff	 mov	 eax, -2			; fffffffeH
  00021	e9 f3 00 00 00	 jmp	 $LN8@deflatePar
$LN7@deflatePar:

; 426  :     s = strm->state;

  00026	8b 4d 08	 mov	 ecx, DWORD PTR _strm$[ebp]
  00029	8b 51 1c	 mov	 edx, DWORD PTR [ecx+28]
  0002c	89 55 fc	 mov	 DWORD PTR _s$[ebp], edx

; 427  : 
; 428  : #ifdef FASTEST
; 429  :     if (level != 0) level = 1;
; 430  : #else
; 431  :     if (level == Z_DEFAULT_COMPRESSION) level = 6;

  0002f	83 7d 0c ff	 cmp	 DWORD PTR _level$[ebp], -1
  00033	75 07		 jne	 SHORT $LN5@deflatePar
  00035	c7 45 0c 06 00
	00 00		 mov	 DWORD PTR _level$[ebp], 6
$LN5@deflatePar:

; 432  : #endif
; 433  :     if (level < 0 || level > 9 || strategy < 0 || strategy > Z_FIXED) {

  0003c	83 7d 0c 00	 cmp	 DWORD PTR _level$[ebp], 0
  00040	7c 12		 jl	 SHORT $LN3@deflatePar
  00042	83 7d 0c 09	 cmp	 DWORD PTR _level$[ebp], 9
  00046	7f 0c		 jg	 SHORT $LN3@deflatePar
  00048	83 7d 10 00	 cmp	 DWORD PTR _strategy$[ebp], 0
  0004c	7c 06		 jl	 SHORT $LN3@deflatePar
  0004e	83 7d 10 04	 cmp	 DWORD PTR _strategy$[ebp], 4
  00052	7e 0a		 jle	 SHORT $LN4@deflatePar
$LN3@deflatePar:

; 434  :         return Z_STREAM_ERROR;

  00054	b8 fe ff ff ff	 mov	 eax, -2			; fffffffeH
  00059	e9 bb 00 00 00	 jmp	 $LN8@deflatePar
$LN4@deflatePar:

; 435  :     }
; 436  :     func = configuration_table[s->level].func;

  0005e	8b 45 fc	 mov	 eax, DWORD PTR _s$[ebp]
  00061	8b 88 84 00 00
	00		 mov	 ecx, DWORD PTR [eax+132]
  00067	6b c9 0c	 imul	 ecx, 12			; 0000000cH
  0006a	8b 91 08 00 00
	00		 mov	 edx, DWORD PTR _configuration_table[ecx+8]
  00070	89 55 f4	 mov	 DWORD PTR _func$[ebp], edx

; 437  : 
; 438  :     if (func != configuration_table[level].func && strm->total_in != 0) {

  00073	8b 45 0c	 mov	 eax, DWORD PTR _level$[ebp]
  00076	6b c0 0c	 imul	 eax, 12			; 0000000cH
  00079	8b 4d f4	 mov	 ecx, DWORD PTR _func$[ebp]
  0007c	3b 88 08 00 00
	00		 cmp	 ecx, DWORD PTR _configuration_table[eax+8]
  00082	74 17		 je	 SHORT $LN2@deflatePar
  00084	8b 55 08	 mov	 edx, DWORD PTR _strm$[ebp]
  00087	83 7a 08 00	 cmp	 DWORD PTR [edx+8], 0
  0008b	74 0e		 je	 SHORT $LN2@deflatePar

; 439  :         /* Flush the last buffer: */
; 440  :         err = deflate(strm, Z_PARTIAL_FLUSH);

  0008d	6a 01		 push	 1
  0008f	8b 45 08	 mov	 eax, DWORD PTR _strm$[ebp]
  00092	50		 push	 eax
  00093	e8 00 00 00 00	 call	 _deflate@8
  00098	89 45 f8	 mov	 DWORD PTR _err$[ebp], eax
$LN2@deflatePar:

; 441  :     }
; 442  :     if (s->level != level) {

  0009b	8b 4d fc	 mov	 ecx, DWORD PTR _s$[ebp]
  0009e	8b 91 84 00 00
	00		 mov	 edx, DWORD PTR [ecx+132]
  000a4	3b 55 0c	 cmp	 edx, DWORD PTR _level$[ebp]
  000a7	74 61		 je	 SHORT $LN1@deflatePar

; 443  :         s->level = level;

  000a9	8b 45 fc	 mov	 eax, DWORD PTR _s$[ebp]
  000ac	8b 4d 0c	 mov	 ecx, DWORD PTR _level$[ebp]
  000af	89 88 84 00 00
	00		 mov	 DWORD PTR [eax+132], ecx

; 444  :         s->max_lazy_match   = configuration_table[level].max_lazy;

  000b5	8b 55 0c	 mov	 edx, DWORD PTR _level$[ebp]
  000b8	6b d2 0c	 imul	 edx, 12			; 0000000cH
  000bb	0f b7 82 02 00
	00 00		 movzx	 eax, WORD PTR _configuration_table[edx+2]
  000c2	8b 4d fc	 mov	 ecx, DWORD PTR _s$[ebp]
  000c5	89 81 80 00 00
	00		 mov	 DWORD PTR [ecx+128], eax

; 445  :         s->good_match       = configuration_table[level].good_length;

  000cb	8b 55 0c	 mov	 edx, DWORD PTR _level$[ebp]
  000ce	6b d2 0c	 imul	 edx, 12			; 0000000cH
  000d1	0f b7 82 00 00
	00 00		 movzx	 eax, WORD PTR _configuration_table[edx]
  000d8	8b 4d fc	 mov	 ecx, DWORD PTR _s$[ebp]
  000db	89 81 8c 00 00
	00		 mov	 DWORD PTR [ecx+140], eax

; 446  :         s->nice_match       = configuration_table[level].nice_length;

  000e1	8b 55 0c	 mov	 edx, DWORD PTR _level$[ebp]
  000e4	6b d2 0c	 imul	 edx, 12			; 0000000cH
  000e7	0f b7 82 04 00
	00 00		 movzx	 eax, WORD PTR _configuration_table[edx+4]
  000ee	8b 4d fc	 mov	 ecx, DWORD PTR _s$[ebp]
  000f1	89 81 90 00 00
	00		 mov	 DWORD PTR [ecx+144], eax

; 447  :         s->max_chain_length = configuration_table[level].max_chain;

  000f7	8b 55 0c	 mov	 edx, DWORD PTR _level$[ebp]
  000fa	6b d2 0c	 imul	 edx, 12			; 0000000cH
  000fd	0f b7 82 06 00
	00 00		 movzx	 eax, WORD PTR _configuration_table[edx+6]
  00104	8b 4d fc	 mov	 ecx, DWORD PTR _s$[ebp]
  00107	89 41 7c	 mov	 DWORD PTR [ecx+124], eax
$LN1@deflatePar:

; 448  :     }
; 449  :     s->strategy = strategy;

  0010a	8b 55 fc	 mov	 edx, DWORD PTR _s$[ebp]
  0010d	8b 45 10	 mov	 eax, DWORD PTR _strategy$[ebp]
  00110	89 82 88 00 00
	00		 mov	 DWORD PTR [edx+136], eax

; 450  :     return err;

  00116	8b 45 f8	 mov	 eax, DWORD PTR _err$[ebp]
$LN8@deflatePar:

; 451  : }

  00119	8b e5		 mov	 esp, ebp
  0011b	5d		 pop	 ebp
  0011c	c2 0c 00	 ret	 12			; 0000000cH
_deflateParams@12 ENDP
_TEXT	ENDS
PUBLIC	_deflateReset@4
; Function compile flags: /Odtp
;	COMDAT _deflateReset@4
_TEXT	SEGMENT
tv131 = -8						; size = 4
_s$ = -4						; size = 4
_strm$ = 8						; size = 4
_deflateReset@4 PROC					; COMDAT

; 359  : {

  00000	55		 push	 ebp
  00001	8b ec		 mov	 ebp, esp
  00003	83 ec 08	 sub	 esp, 8

; 360  :     deflate_state *s;
; 361  : 
; 362  :     if (strm == Z_NULL || strm->state == Z_NULL ||
; 363  :         strm->zalloc == (alloc_func)0 || strm->zfree == (free_func)0) {

  00006	83 7d 08 00	 cmp	 DWORD PTR _strm$[ebp], 0
  0000a	74 1b		 je	 SHORT $LN2@deflateRes
  0000c	8b 45 08	 mov	 eax, DWORD PTR _strm$[ebp]
  0000f	83 78 1c 00	 cmp	 DWORD PTR [eax+28], 0
  00013	74 12		 je	 SHORT $LN2@deflateRes
  00015	8b 4d 08	 mov	 ecx, DWORD PTR _strm$[ebp]
  00018	83 79 20 00	 cmp	 DWORD PTR [ecx+32], 0
  0001c	74 09		 je	 SHORT $LN2@deflateRes
  0001e	8b 55 08	 mov	 edx, DWORD PTR _strm$[ebp]
  00021	83 7a 24 00	 cmp	 DWORD PTR [edx+36], 0
  00025	75 0a		 jne	 SHORT $LN3@deflateRes
$LN2@deflateRes:

; 364  :         return Z_STREAM_ERROR;

  00027	b8 fe ff ff ff	 mov	 eax, -2			; fffffffeH
  0002c	e9 c8 00 00 00	 jmp	 $LN4@deflateRes
$LN3@deflateRes:

; 365  :     }
; 366  : 
; 367  :     strm->total_in = strm->total_out = 0;

  00031	8b 45 08	 mov	 eax, DWORD PTR _strm$[ebp]
  00034	c7 40 14 00 00
	00 00		 mov	 DWORD PTR [eax+20], 0
  0003b	8b 4d 08	 mov	 ecx, DWORD PTR _strm$[ebp]
  0003e	c7 41 08 00 00
	00 00		 mov	 DWORD PTR [ecx+8], 0

; 368  :     strm->msg = Z_NULL; /* use zfree if we ever allocate msg dynamically */

  00045	8b 55 08	 mov	 edx, DWORD PTR _strm$[ebp]
  00048	c7 42 18 00 00
	00 00		 mov	 DWORD PTR [edx+24], 0

; 369  :     strm->data_type = Z_UNKNOWN;

  0004f	8b 45 08	 mov	 eax, DWORD PTR _strm$[ebp]
  00052	c7 40 2c 02 00
	00 00		 mov	 DWORD PTR [eax+44], 2

; 370  : 
; 371  :     s = (deflate_state *)strm->state;

  00059	8b 4d 08	 mov	 ecx, DWORD PTR _strm$[ebp]
  0005c	8b 51 1c	 mov	 edx, DWORD PTR [ecx+28]
  0005f	89 55 fc	 mov	 DWORD PTR _s$[ebp], edx

; 372  :     s->pending = 0;

  00062	8b 45 fc	 mov	 eax, DWORD PTR _s$[ebp]
  00065	c7 40 14 00 00
	00 00		 mov	 DWORD PTR [eax+20], 0

; 373  :     s->pending_out = s->pending_buf;

  0006c	8b 4d fc	 mov	 ecx, DWORD PTR _s$[ebp]
  0006f	8b 55 fc	 mov	 edx, DWORD PTR _s$[ebp]
  00072	8b 42 08	 mov	 eax, DWORD PTR [edx+8]
  00075	89 41 10	 mov	 DWORD PTR [ecx+16], eax

; 374  : 
; 375  :     if (s->wrap < 0) {

  00078	8b 4d fc	 mov	 ecx, DWORD PTR _s$[ebp]
  0007b	83 79 18 00	 cmp	 DWORD PTR [ecx+24], 0
  0007f	7d 0e		 jge	 SHORT $LN1@deflateRes

; 376  :         s->wrap = -s->wrap; /* was made negative by deflate(..., Z_FINISH); */

  00081	8b 55 fc	 mov	 edx, DWORD PTR _s$[ebp]
  00084	8b 42 18	 mov	 eax, DWORD PTR [edx+24]
  00087	f7 d8		 neg	 eax
  00089	8b 4d fc	 mov	 ecx, DWORD PTR _s$[ebp]
  0008c	89 41 18	 mov	 DWORD PTR [ecx+24], eax
$LN1@deflateRes:

; 377  :     }
; 378  :     s->status = s->wrap ? INIT_STATE : BUSY_STATE;

  0008f	8b 55 fc	 mov	 edx, DWORD PTR _s$[ebp]
  00092	8b 42 18	 mov	 eax, DWORD PTR [edx+24]
  00095	f7 d8		 neg	 eax
  00097	1b c0		 sbb	 eax, eax
  00099	83 e0 b9	 and	 eax, -71		; ffffffb9H
  0009c	83 c0 71	 add	 eax, 113		; 00000071H
  0009f	8b 4d fc	 mov	 ecx, DWORD PTR _s$[ebp]
  000a2	89 41 04	 mov	 DWORD PTR [ecx+4], eax

; 379  :     strm->adler =
; 380  : #ifdef GZIP
; 381  :         s->wrap == 2 ? crc32(0L, Z_NULL, 0) :
; 382  : #endif
; 383  :         adler32(0L, Z_NULL, 0);

  000a5	8b 55 fc	 mov	 edx, DWORD PTR _s$[ebp]
  000a8	83 7a 18 02	 cmp	 DWORD PTR [edx+24], 2
  000ac	75 10		 jne	 SHORT $LN6@deflateRes
  000ae	6a 00		 push	 0
  000b0	6a 00		 push	 0
  000b2	6a 00		 push	 0
  000b4	e8 00 00 00 00	 call	 _crc32@12
  000b9	89 45 f8	 mov	 DWORD PTR tv131[ebp], eax
  000bc	eb 0e		 jmp	 SHORT $LN7@deflateRes
$LN6@deflateRes:
  000be	6a 00		 push	 0
  000c0	6a 00		 push	 0
  000c2	6a 00		 push	 0
  000c4	e8 00 00 00 00	 call	 _adler32@12
  000c9	89 45 f8	 mov	 DWORD PTR tv131[ebp], eax
$LN7@deflateRes:
  000cc	8b 45 08	 mov	 eax, DWORD PTR _strm$[ebp]
  000cf	8b 4d f8	 mov	 ecx, DWORD PTR tv131[ebp]
  000d2	89 48 30	 mov	 DWORD PTR [eax+48], ecx

; 384  :     s->last_flush = Z_NO_FLUSH;

  000d5	8b 55 fc	 mov	 edx, DWORD PTR _s$[ebp]
  000d8	c7 42 28 00 00
	00 00		 mov	 DWORD PTR [edx+40], 0

; 385  : 
; 386  :     _tr_init(s);

  000df	8b 45 fc	 mov	 eax, DWORD PTR _s$[ebp]
  000e2	50		 push	 eax
  000e3	e8 00 00 00 00	 call	 __tr_init
  000e8	83 c4 04	 add	 esp, 4

; 387  :     lm_init(s);

  000eb	8b 4d fc	 mov	 ecx, DWORD PTR _s$[ebp]
  000ee	51		 push	 ecx
  000ef	e8 00 00 00 00	 call	 _lm_init
  000f4	83 c4 04	 add	 esp, 4

; 388  : 
; 389  :     return Z_OK;

  000f7	33 c0		 xor	 eax, eax
$LN4@deflateRes:

; 390  : }

  000f9	8b e5		 mov	 esp, ebp
  000fb	5d		 pop	 ebp
  000fc	c2 04 00	 ret	 4
_deflateReset@4 ENDP
_TEXT	ENDS
PUBLIC	_deflateSetDictionary@12
; Function compile flags: /Odtp
;	COMDAT _deflateSetDictionary@12
_TEXT	SEGMENT
_hash_head$ = -16					; size = 4
_s$ = -12						; size = 4
_n$ = -8						; size = 4
_length$ = -4						; size = 4
_strm$ = 8						; size = 4
_dictionary$ = 12					; size = 4
_dictLength$ = 16					; size = 4
_deflateSetDictionary@12 PROC				; COMDAT

; 319  : {

  00000	55		 push	 ebp
  00001	8b ec		 mov	 ebp, esp
  00003	83 ec 10	 sub	 esp, 16			; 00000010H
  00006	56		 push	 esi

; 320  :     deflate_state *s;
; 321  :     uInt length = dictLength;

  00007	8b 45 10	 mov	 eax, DWORD PTR _dictLength$[ebp]
  0000a	89 45 fc	 mov	 DWORD PTR _length$[ebp], eax

; 322  :     uInt n;
; 323  :     IPos hash_head = 0;

  0000d	c7 45 f0 00 00
	00 00		 mov	 DWORD PTR _hash_head$[ebp], 0

; 324  : 
; 325  :     if (strm == Z_NULL || strm->state == Z_NULL || dictionary == Z_NULL ||
; 326  :         strm->state->wrap == 2 ||
; 327  :         (strm->state->wrap == 1 && strm->state->status != INIT_STATE))

  00014	83 7d 08 00	 cmp	 DWORD PTR _strm$[ebp], 0
  00018	74 33		 je	 SHORT $LN8@deflateSet
  0001a	8b 4d 08	 mov	 ecx, DWORD PTR _strm$[ebp]
  0001d	83 79 1c 00	 cmp	 DWORD PTR [ecx+28], 0
  00021	74 2a		 je	 SHORT $LN8@deflateSet
  00023	83 7d 0c 00	 cmp	 DWORD PTR _dictionary$[ebp], 0
  00027	74 24		 je	 SHORT $LN8@deflateSet
  00029	8b 55 08	 mov	 edx, DWORD PTR _strm$[ebp]
  0002c	8b 42 1c	 mov	 eax, DWORD PTR [edx+28]
  0002f	83 78 18 02	 cmp	 DWORD PTR [eax+24], 2
  00033	74 18		 je	 SHORT $LN8@deflateSet
  00035	8b 4d 08	 mov	 ecx, DWORD PTR _strm$[ebp]
  00038	8b 51 1c	 mov	 edx, DWORD PTR [ecx+28]
  0003b	83 7a 18 01	 cmp	 DWORD PTR [edx+24], 1
  0003f	75 16		 jne	 SHORT $LN9@deflateSet
  00041	8b 45 08	 mov	 eax, DWORD PTR _strm$[ebp]
  00044	8b 48 1c	 mov	 ecx, DWORD PTR [eax+28]
  00047	83 79 04 2a	 cmp	 DWORD PTR [ecx+4], 42	; 0000002aH
  0004b	74 0a		 je	 SHORT $LN9@deflateSet
$LN8@deflateSet:

; 328  :         return Z_STREAM_ERROR;

  0004d	b8 fe ff ff ff	 mov	 eax, -2			; fffffffeH
  00052	e9 6a 01 00 00	 jmp	 $LN10@deflateSet
$LN9@deflateSet:

; 329  : 
; 330  :     s = strm->state;

  00057	8b 55 08	 mov	 edx, DWORD PTR _strm$[ebp]
  0005a	8b 42 1c	 mov	 eax, DWORD PTR [edx+28]
  0005d	89 45 f4	 mov	 DWORD PTR _s$[ebp], eax

; 331  :     if (s->wrap)

  00060	8b 4d f4	 mov	 ecx, DWORD PTR _s$[ebp]
  00063	83 79 18 00	 cmp	 DWORD PTR [ecx+24], 0
  00067	74 1a		 je	 SHORT $LN7@deflateSet

; 332  :         strm->adler = adler32(strm->adler, dictionary, dictLength);

  00069	8b 55 10	 mov	 edx, DWORD PTR _dictLength$[ebp]
  0006c	52		 push	 edx
  0006d	8b 45 0c	 mov	 eax, DWORD PTR _dictionary$[ebp]
  00070	50		 push	 eax
  00071	8b 4d 08	 mov	 ecx, DWORD PTR _strm$[ebp]
  00074	8b 51 30	 mov	 edx, DWORD PTR [ecx+48]
  00077	52		 push	 edx
  00078	e8 00 00 00 00	 call	 _adler32@12
  0007d	8b 4d 08	 mov	 ecx, DWORD PTR _strm$[ebp]
  00080	89 41 30	 mov	 DWORD PTR [ecx+48], eax
$LN7@deflateSet:

; 333  : 
; 334  :     if (length < MIN_MATCH) return Z_OK;

  00083	83 7d fc 03	 cmp	 DWORD PTR _length$[ebp], 3
  00087	73 07		 jae	 SHORT $LN6@deflateSet
  00089	33 c0		 xor	 eax, eax
  0008b	e9 31 01 00 00	 jmp	 $LN10@deflateSet
$LN6@deflateSet:

; 335  :     if (length > MAX_DIST(s)) {

  00090	8b 55 f4	 mov	 edx, DWORD PTR _s$[ebp]
  00093	8b 42 2c	 mov	 eax, DWORD PTR [edx+44]
  00096	2d 06 01 00 00	 sub	 eax, 262		; 00000106H
  0009b	39 45 fc	 cmp	 DWORD PTR _length$[ebp], eax
  0009e	76 1b		 jbe	 SHORT $LN5@deflateSet

; 336  :         length = MAX_DIST(s);

  000a0	8b 4d f4	 mov	 ecx, DWORD PTR _s$[ebp]
  000a3	8b 51 2c	 mov	 edx, DWORD PTR [ecx+44]
  000a6	81 ea 06 01 00
	00		 sub	 edx, 262		; 00000106H
  000ac	89 55 fc	 mov	 DWORD PTR _length$[ebp], edx

; 337  :         dictionary += dictLength - length; /* use the tail of the dictionary */

  000af	8b 45 10	 mov	 eax, DWORD PTR _dictLength$[ebp]
  000b2	2b 45 fc	 sub	 eax, DWORD PTR _length$[ebp]
  000b5	03 45 0c	 add	 eax, DWORD PTR _dictionary$[ebp]
  000b8	89 45 0c	 mov	 DWORD PTR _dictionary$[ebp], eax
$LN5@deflateSet:

; 338  :     }
; 339  :     zmemcpy(s->window, dictionary, length);

  000bb	8b 4d fc	 mov	 ecx, DWORD PTR _length$[ebp]
  000be	51		 push	 ecx
  000bf	8b 55 0c	 mov	 edx, DWORD PTR _dictionary$[ebp]
  000c2	52		 push	 edx
  000c3	8b 45 f4	 mov	 eax, DWORD PTR _s$[ebp]
  000c6	8b 48 38	 mov	 ecx, DWORD PTR [eax+56]
  000c9	51		 push	 ecx
  000ca	e8 00 00 00 00	 call	 _memcpy
  000cf	83 c4 0c	 add	 esp, 12			; 0000000cH

; 340  :     s->strstart = length;

  000d2	8b 55 f4	 mov	 edx, DWORD PTR _s$[ebp]
  000d5	8b 45 fc	 mov	 eax, DWORD PTR _length$[ebp]
  000d8	89 42 6c	 mov	 DWORD PTR [edx+108], eax

; 341  :     s->block_start = (long)length;

  000db	8b 4d f4	 mov	 ecx, DWORD PTR _s$[ebp]
  000de	8b 55 fc	 mov	 edx, DWORD PTR _length$[ebp]
  000e1	89 51 5c	 mov	 DWORD PTR [ecx+92], edx

; 342  : 
; 343  :     /* Insert all strings in the hash table (except for the last two bytes).
; 344  :      * s->lookahead stays null, so s->ins_h will be recomputed at the next
; 345  :      * call of fill_window.
; 346  :      */
; 347  :     s->ins_h = s->window[0];

  000e4	8b 45 f4	 mov	 eax, DWORD PTR _s$[ebp]
  000e7	8b 48 38	 mov	 ecx, DWORD PTR [eax+56]
  000ea	0f b6 11	 movzx	 edx, BYTE PTR [ecx]
  000ed	8b 45 f4	 mov	 eax, DWORD PTR _s$[ebp]
  000f0	89 50 48	 mov	 DWORD PTR [eax+72], edx

; 348  :     UPDATE_HASH(s, s->ins_h, s->window[1]);

  000f3	8b 4d f4	 mov	 ecx, DWORD PTR _s$[ebp]
  000f6	8b 55 f4	 mov	 edx, DWORD PTR _s$[ebp]
  000f9	8b 41 48	 mov	 eax, DWORD PTR [ecx+72]
  000fc	8b 4a 58	 mov	 ecx, DWORD PTR [edx+88]
  000ff	d3 e0		 shl	 eax, cl
  00101	8b 4d f4	 mov	 ecx, DWORD PTR _s$[ebp]
  00104	8b 51 38	 mov	 edx, DWORD PTR [ecx+56]
  00107	0f b6 4a 01	 movzx	 ecx, BYTE PTR [edx+1]
  0010b	33 c1		 xor	 eax, ecx
  0010d	8b 55 f4	 mov	 edx, DWORD PTR _s$[ebp]
  00110	23 42 54	 and	 eax, DWORD PTR [edx+84]
  00113	8b 4d f4	 mov	 ecx, DWORD PTR _s$[ebp]
  00116	89 41 48	 mov	 DWORD PTR [ecx+72], eax

; 349  :     for (n = 0; n <= length - MIN_MATCH; n++) {

  00119	c7 45 f8 00 00
	00 00		 mov	 DWORD PTR _n$[ebp], 0
  00120	eb 09		 jmp	 SHORT $LN4@deflateSet
$LN3@deflateSet:
  00122	8b 55 f8	 mov	 edx, DWORD PTR _n$[ebp]
  00125	83 c2 01	 add	 edx, 1
  00128	89 55 f8	 mov	 DWORD PTR _n$[ebp], edx
$LN4@deflateSet:
  0012b	8b 45 fc	 mov	 eax, DWORD PTR _length$[ebp]
  0012e	83 e8 03	 sub	 eax, 3
  00131	39 45 f8	 cmp	 DWORD PTR _n$[ebp], eax
  00134	77 7c		 ja	 SHORT $LN2@deflateSet

; 350  :         INSERT_STRING(s, n, hash_head);

  00136	8b 4d f4	 mov	 ecx, DWORD PTR _s$[ebp]
  00139	8b 55 f4	 mov	 edx, DWORD PTR _s$[ebp]
  0013c	8b 41 48	 mov	 eax, DWORD PTR [ecx+72]
  0013f	8b 4a 58	 mov	 ecx, DWORD PTR [edx+88]
  00142	d3 e0		 shl	 eax, cl
  00144	8b 4d f4	 mov	 ecx, DWORD PTR _s$[ebp]
  00147	8b 51 38	 mov	 edx, DWORD PTR [ecx+56]
  0014a	8b 4d f8	 mov	 ecx, DWORD PTR _n$[ebp]
  0014d	0f b6 54 0a 02	 movzx	 edx, BYTE PTR [edx+ecx+2]
  00152	33 c2		 xor	 eax, edx
  00154	8b 4d f4	 mov	 ecx, DWORD PTR _s$[ebp]
  00157	23 41 54	 and	 eax, DWORD PTR [ecx+84]
  0015a	8b 55 f4	 mov	 edx, DWORD PTR _s$[ebp]
  0015d	89 42 48	 mov	 DWORD PTR [edx+72], eax
  00160	8b 45 f4	 mov	 eax, DWORD PTR _s$[ebp]
  00163	8b 48 48	 mov	 ecx, DWORD PTR [eax+72]
  00166	8b 55 f4	 mov	 edx, DWORD PTR _s$[ebp]
  00169	8b 42 44	 mov	 eax, DWORD PTR [edx+68]
  0016c	8b 55 f4	 mov	 edx, DWORD PTR _s$[ebp]
  0016f	8b 75 f8	 mov	 esi, DWORD PTR _n$[ebp]
  00172	23 72 34	 and	 esi, DWORD PTR [edx+52]
  00175	8b 55 f4	 mov	 edx, DWORD PTR _s$[ebp]
  00178	8b 52 40	 mov	 edx, DWORD PTR [edx+64]
  0017b	66 8b 04 48	 mov	 ax, WORD PTR [eax+ecx*2]
  0017f	66 89 04 72	 mov	 WORD PTR [edx+esi*2], ax
  00183	8b 4d f4	 mov	 ecx, DWORD PTR _s$[ebp]
  00186	8b 55 f8	 mov	 edx, DWORD PTR _n$[ebp]
  00189	23 51 34	 and	 edx, DWORD PTR [ecx+52]
  0018c	8b 45 f4	 mov	 eax, DWORD PTR _s$[ebp]
  0018f	8b 48 40	 mov	 ecx, DWORD PTR [eax+64]
  00192	0f b7 14 51	 movzx	 edx, WORD PTR [ecx+edx*2]
  00196	89 55 f0	 mov	 DWORD PTR _hash_head$[ebp], edx
  00199	8b 45 f4	 mov	 eax, DWORD PTR _s$[ebp]
  0019c	8b 48 48	 mov	 ecx, DWORD PTR [eax+72]
  0019f	8b 55 f4	 mov	 edx, DWORD PTR _s$[ebp]
  001a2	8b 42 44	 mov	 eax, DWORD PTR [edx+68]
  001a5	66 8b 55 f8	 mov	 dx, WORD PTR _n$[ebp]
  001a9	66 89 14 48	 mov	 WORD PTR [eax+ecx*2], dx

; 351  :     }

  001ad	e9 70 ff ff ff	 jmp	 $LN3@deflateSet
$LN2@deflateSet:

; 352  :     if (hash_head) hash_head = 0;  /* to make compiler happy */

  001b2	83 7d f0 00	 cmp	 DWORD PTR _hash_head$[ebp], 0
  001b6	74 07		 je	 SHORT $LN1@deflateSet
  001b8	c7 45 f0 00 00
	00 00		 mov	 DWORD PTR _hash_head$[ebp], 0
$LN1@deflateSet:

; 353  :     return Z_OK;

  001bf	33 c0		 xor	 eax, eax
$LN10@deflateSet:

; 354  : }

  001c1	5e		 pop	 esi
  001c2	8b e5		 mov	 esp, ebp
  001c4	5d		 pop	 ebp
  001c5	c2 0c 00	 ret	 12			; 0000000cH
_deflateSetDictionary@12 ENDP
_TEXT	ENDS
PUBLIC	_deflateInit2_@32
; Function compile flags: /Odtp
;	COMDAT _deflateInit2_@32
_TEXT	SEGMENT
_wrap$ = -12						; size = 4
_overlay$ = -8						; size = 4
_s$ = -4						; size = 4
_strm$ = 8						; size = 4
_level$ = 12						; size = 4
_method$ = 16						; size = 4
_windowBits$ = 20					; size = 4
_memLevel$ = 24						; size = 4
_strategy$ = 28						; size = 4
_version$ = 32						; size = 4
_stream_size$ = 36					; size = 4
_deflateInit2_@32 PROC					; COMDAT

; 226  : {

  00000	55		 push	 ebp
  00001	8b ec		 mov	 ebp, esp
  00003	83 ec 0c	 sub	 esp, 12			; 0000000cH

; 227  :     deflate_state *s;
; 228  :     int wrap = 1;

  00006	c7 45 f4 01 00
	00 00		 mov	 DWORD PTR _wrap$[ebp], 1

; 229  :     static const char my_version[] = ZLIB_VERSION;
; 230  : 
; 231  :     ushf *overlay;
; 232  :     /* We overlay pending_buf and d_buf+l_buf. This works since the average
; 233  :      * output size for (length,distance) codes is <= 24 bits.
; 234  :      */
; 235  : 
; 236  :     if (version == Z_NULL || version[0] != my_version[0] ||
; 237  :         stream_size != sizeof(z_stream)) {

  0000d	83 7d 20 00	 cmp	 DWORD PTR _version$[ebp], 0
  00011	74 17		 je	 SHORT $LN14@deflateIni
  00013	8b 45 20	 mov	 eax, DWORD PTR _version$[ebp]
  00016	0f be 08	 movsx	 ecx, BYTE PTR [eax]
  00019	0f be 15 00 00
	00 00		 movsx	 edx, BYTE PTR ?my_version@?1??deflateInit2_@@9@9
  00020	3b ca		 cmp	 ecx, edx
  00022	75 06		 jne	 SHORT $LN14@deflateIni
  00024	83 7d 24 38	 cmp	 DWORD PTR _stream_size$[ebp], 56 ; 00000038H
  00028	74 0a		 je	 SHORT $LN15@deflateIni
$LN14@deflateIni:

; 238  :         return Z_VERSION_ERROR;

  0002a	b8 fa ff ff ff	 mov	 eax, -6			; fffffffaH
  0002f	e9 ef 02 00 00	 jmp	 $LN16@deflateIni
$LN15@deflateIni:

; 239  :     }
; 240  :     if (strm == Z_NULL) return Z_STREAM_ERROR;

  00034	83 7d 08 00	 cmp	 DWORD PTR _strm$[ebp], 0
  00038	75 0a		 jne	 SHORT $LN13@deflateIni
  0003a	b8 fe ff ff ff	 mov	 eax, -2			; fffffffeH
  0003f	e9 df 02 00 00	 jmp	 $LN16@deflateIni
$LN13@deflateIni:

; 241  : 
; 242  :     strm->msg = Z_NULL;

  00044	8b 45 08	 mov	 eax, DWORD PTR _strm$[ebp]
  00047	c7 40 18 00 00
	00 00		 mov	 DWORD PTR [eax+24], 0

; 243  :     if (strm->zalloc == (alloc_func)0) {

  0004e	8b 4d 08	 mov	 ecx, DWORD PTR _strm$[ebp]
  00051	83 79 20 00	 cmp	 DWORD PTR [ecx+32], 0
  00055	75 14		 jne	 SHORT $LN12@deflateIni

; 244  :         strm->zalloc = zcalloc;

  00057	8b 55 08	 mov	 edx, DWORD PTR _strm$[ebp]
  0005a	c7 42 20 00 00
	00 00		 mov	 DWORD PTR [edx+32], OFFSET _zcalloc

; 245  :         strm->opaque = (voidpf)0;

  00061	8b 45 08	 mov	 eax, DWORD PTR _strm$[ebp]
  00064	c7 40 28 00 00
	00 00		 mov	 DWORD PTR [eax+40], 0
$LN12@deflateIni:

; 246  :     }
; 247  :     if (strm->zfree == (free_func)0) strm->zfree = zcfree;

  0006b	8b 4d 08	 mov	 ecx, DWORD PTR _strm$[ebp]
  0006e	83 79 24 00	 cmp	 DWORD PTR [ecx+36], 0
  00072	75 0a		 jne	 SHORT $LN11@deflateIni
  00074	8b 55 08	 mov	 edx, DWORD PTR _strm$[ebp]
  00077	c7 42 24 00 00
	00 00		 mov	 DWORD PTR [edx+36], OFFSET _zcfree
$LN11@deflateIni:

; 248  : 
; 249  : #ifdef FASTEST
; 250  :     if (level != 0) level = 1;
; 251  : #else
; 252  :     if (level == Z_DEFAULT_COMPRESSION) level = 6;

  0007e	83 7d 0c ff	 cmp	 DWORD PTR _level$[ebp], -1
  00082	75 07		 jne	 SHORT $LN10@deflateIni
  00084	c7 45 0c 06 00
	00 00		 mov	 DWORD PTR _level$[ebp], 6
$LN10@deflateIni:

; 253  : #endif
; 254  : 
; 255  :     if (windowBits < 0) { /* suppress zlib wrapper */

  0008b	83 7d 14 00	 cmp	 DWORD PTR _windowBits$[ebp], 0
  0008f	7d 11		 jge	 SHORT $LN9@deflateIni

; 256  :         wrap = 0;

  00091	c7 45 f4 00 00
	00 00		 mov	 DWORD PTR _wrap$[ebp], 0

; 257  :         windowBits = -windowBits;

  00098	8b 45 14	 mov	 eax, DWORD PTR _windowBits$[ebp]
  0009b	f7 d8		 neg	 eax
  0009d	89 45 14	 mov	 DWORD PTR _windowBits$[ebp], eax
  000a0	eb 16		 jmp	 SHORT $LN8@deflateIni
$LN9@deflateIni:

; 258  :     }
; 259  : #ifdef GZIP
; 260  :     else if (windowBits > 15) {

  000a2	83 7d 14 0f	 cmp	 DWORD PTR _windowBits$[ebp], 15 ; 0000000fH
  000a6	7e 10		 jle	 SHORT $LN8@deflateIni

; 261  :         wrap = 2;       /* write gzip wrapper instead */

  000a8	c7 45 f4 02 00
	00 00		 mov	 DWORD PTR _wrap$[ebp], 2

; 262  :         windowBits -= 16;

  000af	8b 4d 14	 mov	 ecx, DWORD PTR _windowBits$[ebp]
  000b2	83 e9 10	 sub	 ecx, 16			; 00000010H
  000b5	89 4d 14	 mov	 DWORD PTR _windowBits$[ebp], ecx
$LN8@deflateIni:

; 263  :     }
; 264  : #endif
; 265  :     if (memLevel < 1 || memLevel > MAX_MEM_LEVEL || method != Z_DEFLATED ||
; 266  :         windowBits < 8 || windowBits > 15 || level < 0 || level > 9 ||
; 267  :         strategy < 0 || strategy > Z_FIXED) {

  000b8	83 7d 18 01	 cmp	 DWORD PTR _memLevel$[ebp], 1
  000bc	7c 30		 jl	 SHORT $LN5@deflateIni
  000be	83 7d 18 09	 cmp	 DWORD PTR _memLevel$[ebp], 9
  000c2	7f 2a		 jg	 SHORT $LN5@deflateIni
  000c4	83 7d 10 08	 cmp	 DWORD PTR _method$[ebp], 8
  000c8	75 24		 jne	 SHORT $LN5@deflateIni
  000ca	83 7d 14 08	 cmp	 DWORD PTR _windowBits$[ebp], 8
  000ce	7c 1e		 jl	 SHORT $LN5@deflateIni
  000d0	83 7d 14 0f	 cmp	 DWORD PTR _windowBits$[ebp], 15 ; 0000000fH
  000d4	7f 18		 jg	 SHORT $LN5@deflateIni
  000d6	83 7d 0c 00	 cmp	 DWORD PTR _level$[ebp], 0
  000da	7c 12		 jl	 SHORT $LN5@deflateIni
  000dc	83 7d 0c 09	 cmp	 DWORD PTR _level$[ebp], 9
  000e0	7f 0c		 jg	 SHORT $LN5@deflateIni
  000e2	83 7d 1c 00	 cmp	 DWORD PTR _strategy$[ebp], 0
  000e6	7c 06		 jl	 SHORT $LN5@deflateIni
  000e8	83 7d 1c 04	 cmp	 DWORD PTR _strategy$[ebp], 4
  000ec	7e 0a		 jle	 SHORT $LN6@deflateIni
$LN5@deflateIni:

; 268  :         return Z_STREAM_ERROR;

  000ee	b8 fe ff ff ff	 mov	 eax, -2			; fffffffeH
  000f3	e9 2b 02 00 00	 jmp	 $LN16@deflateIni
$LN6@deflateIni:

; 269  :     }
; 270  :     if (windowBits == 8) windowBits = 9;  /* until 256-byte window bug fixed */

  000f8	83 7d 14 08	 cmp	 DWORD PTR _windowBits$[ebp], 8
  000fc	75 07		 jne	 SHORT $LN4@deflateIni
  000fe	c7 45 14 09 00
	00 00		 mov	 DWORD PTR _windowBits$[ebp], 9
$LN4@deflateIni:

; 271  :     s = (deflate_state *) ZALLOC(strm, 1, sizeof(deflate_state));

  00105	68 c0 16 00 00	 push	 5824			; 000016c0H
  0010a	6a 01		 push	 1
  0010c	8b 55 08	 mov	 edx, DWORD PTR _strm$[ebp]
  0010f	8b 42 28	 mov	 eax, DWORD PTR [edx+40]
  00112	50		 push	 eax
  00113	8b 4d 08	 mov	 ecx, DWORD PTR _strm$[ebp]
  00116	8b 51 20	 mov	 edx, DWORD PTR [ecx+32]
  00119	ff d2		 call	 edx
  0011b	83 c4 0c	 add	 esp, 12			; 0000000cH
  0011e	89 45 fc	 mov	 DWORD PTR _s$[ebp], eax

; 272  :     if (s == Z_NULL) return Z_MEM_ERROR;

  00121	83 7d fc 00	 cmp	 DWORD PTR _s$[ebp], 0
  00125	75 0a		 jne	 SHORT $LN3@deflateIni
  00127	b8 fc ff ff ff	 mov	 eax, -4			; fffffffcH
  0012c	e9 f2 01 00 00	 jmp	 $LN16@deflateIni
$LN3@deflateIni:

; 273  :     strm->state = (struct internal_state FAR *)s;

  00131	8b 45 08	 mov	 eax, DWORD PTR _strm$[ebp]
  00134	8b 4d fc	 mov	 ecx, DWORD PTR _s$[ebp]
  00137	89 48 1c	 mov	 DWORD PTR [eax+28], ecx

; 274  :     s->strm = strm;

  0013a	8b 55 fc	 mov	 edx, DWORD PTR _s$[ebp]
  0013d	8b 45 08	 mov	 eax, DWORD PTR _strm$[ebp]
  00140	89 02		 mov	 DWORD PTR [edx], eax

; 275  : 
; 276  :     s->wrap = wrap;

  00142	8b 4d fc	 mov	 ecx, DWORD PTR _s$[ebp]
  00145	8b 55 f4	 mov	 edx, DWORD PTR _wrap$[ebp]
  00148	89 51 18	 mov	 DWORD PTR [ecx+24], edx

; 277  :     s->gzhead = Z_NULL;

  0014b	8b 45 fc	 mov	 eax, DWORD PTR _s$[ebp]
  0014e	c7 40 1c 00 00
	00 00		 mov	 DWORD PTR [eax+28], 0

; 278  :     s->w_bits = windowBits;

  00155	8b 4d fc	 mov	 ecx, DWORD PTR _s$[ebp]
  00158	8b 55 14	 mov	 edx, DWORD PTR _windowBits$[ebp]
  0015b	89 51 30	 mov	 DWORD PTR [ecx+48], edx

; 279  :     s->w_size = 1 << s->w_bits;

  0015e	8b 45 fc	 mov	 eax, DWORD PTR _s$[ebp]
  00161	ba 01 00 00 00	 mov	 edx, 1
  00166	8b 48 30	 mov	 ecx, DWORD PTR [eax+48]
  00169	d3 e2		 shl	 edx, cl
  0016b	8b 45 fc	 mov	 eax, DWORD PTR _s$[ebp]
  0016e	89 50 2c	 mov	 DWORD PTR [eax+44], edx

; 280  :     s->w_mask = s->w_size - 1;

  00171	8b 4d fc	 mov	 ecx, DWORD PTR _s$[ebp]
  00174	8b 51 2c	 mov	 edx, DWORD PTR [ecx+44]
  00177	83 ea 01	 sub	 edx, 1
  0017a	8b 45 fc	 mov	 eax, DWORD PTR _s$[ebp]
  0017d	89 50 34	 mov	 DWORD PTR [eax+52], edx

; 281  : 
; 282  :     s->hash_bits = memLevel + 7;

  00180	8b 4d 18	 mov	 ecx, DWORD PTR _memLevel$[ebp]
  00183	83 c1 07	 add	 ecx, 7
  00186	8b 55 fc	 mov	 edx, DWORD PTR _s$[ebp]
  00189	89 4a 50	 mov	 DWORD PTR [edx+80], ecx

; 283  :     s->hash_size = 1 << s->hash_bits;

  0018c	8b 45 fc	 mov	 eax, DWORD PTR _s$[ebp]
  0018f	ba 01 00 00 00	 mov	 edx, 1
  00194	8b 48 50	 mov	 ecx, DWORD PTR [eax+80]
  00197	d3 e2		 shl	 edx, cl
  00199	8b 45 fc	 mov	 eax, DWORD PTR _s$[ebp]
  0019c	89 50 4c	 mov	 DWORD PTR [eax+76], edx

; 284  :     s->hash_mask = s->hash_size - 1;

  0019f	8b 4d fc	 mov	 ecx, DWORD PTR _s$[ebp]
  001a2	8b 51 4c	 mov	 edx, DWORD PTR [ecx+76]
  001a5	83 ea 01	 sub	 edx, 1
  001a8	8b 45 fc	 mov	 eax, DWORD PTR _s$[ebp]
  001ab	89 50 54	 mov	 DWORD PTR [eax+84], edx

; 285  :     s->hash_shift =  ((s->hash_bits+MIN_MATCH-1)/MIN_MATCH);

  001ae	8b 4d fc	 mov	 ecx, DWORD PTR _s$[ebp]
  001b1	8b 41 50	 mov	 eax, DWORD PTR [ecx+80]
  001b4	83 c0 02	 add	 eax, 2
  001b7	33 d2		 xor	 edx, edx
  001b9	b9 03 00 00 00	 mov	 ecx, 3
  001be	f7 f1		 div	 ecx
  001c0	8b 55 fc	 mov	 edx, DWORD PTR _s$[ebp]
  001c3	89 42 58	 mov	 DWORD PTR [edx+88], eax

; 286  : 
; 287  :     s->window = (Bytef *) ZALLOC(strm, s->w_size, 2*sizeof(Byte));

  001c6	6a 02		 push	 2
  001c8	8b 45 fc	 mov	 eax, DWORD PTR _s$[ebp]
  001cb	8b 48 2c	 mov	 ecx, DWORD PTR [eax+44]
  001ce	51		 push	 ecx
  001cf	8b 55 08	 mov	 edx, DWORD PTR _strm$[ebp]
  001d2	8b 42 28	 mov	 eax, DWORD PTR [edx+40]
  001d5	50		 push	 eax
  001d6	8b 4d 08	 mov	 ecx, DWORD PTR _strm$[ebp]
  001d9	8b 51 20	 mov	 edx, DWORD PTR [ecx+32]
  001dc	ff d2		 call	 edx
  001de	83 c4 0c	 add	 esp, 12			; 0000000cH
  001e1	8b 4d fc	 mov	 ecx, DWORD PTR _s$[ebp]
  001e4	89 41 38	 mov	 DWORD PTR [ecx+56], eax

; 288  :     s->prev   = (Posf *)  ZALLOC(strm, s->w_size, sizeof(Pos));

  001e7	6a 02		 push	 2
  001e9	8b 55 fc	 mov	 edx, DWORD PTR _s$[ebp]
  001ec	8b 42 2c	 mov	 eax, DWORD PTR [edx+44]
  001ef	50		 push	 eax
  001f0	8b 4d 08	 mov	 ecx, DWORD PTR _strm$[ebp]
  001f3	8b 51 28	 mov	 edx, DWORD PTR [ecx+40]
  001f6	52		 push	 edx
  001f7	8b 45 08	 mov	 eax, DWORD PTR _strm$[ebp]
  001fa	8b 48 20	 mov	 ecx, DWORD PTR [eax+32]
  001fd	ff d1		 call	 ecx
  001ff	83 c4 0c	 add	 esp, 12			; 0000000cH
  00202	8b 55 fc	 mov	 edx, DWORD PTR _s$[ebp]
  00205	89 42 40	 mov	 DWORD PTR [edx+64], eax

; 289  :     s->head   = (Posf *)  ZALLOC(strm, s->hash_size, sizeof(Pos));

  00208	6a 02		 push	 2
  0020a	8b 45 fc	 mov	 eax, DWORD PTR _s$[ebp]
  0020d	8b 48 4c	 mov	 ecx, DWORD PTR [eax+76]
  00210	51		 push	 ecx
  00211	8b 55 08	 mov	 edx, DWORD PTR _strm$[ebp]
  00214	8b 42 28	 mov	 eax, DWORD PTR [edx+40]
  00217	50		 push	 eax
  00218	8b 4d 08	 mov	 ecx, DWORD PTR _strm$[ebp]
  0021b	8b 51 20	 mov	 edx, DWORD PTR [ecx+32]
  0021e	ff d2		 call	 edx
  00220	83 c4 0c	 add	 esp, 12			; 0000000cH
  00223	8b 4d fc	 mov	 ecx, DWORD PTR _s$[ebp]
  00226	89 41 44	 mov	 DWORD PTR [ecx+68], eax

; 290  : 
; 291  :     s->lit_bufsize = 1 << (memLevel + 6); /* 16K elements by default */

  00229	8b 4d 18	 mov	 ecx, DWORD PTR _memLevel$[ebp]
  0022c	83 c1 06	 add	 ecx, 6
  0022f	ba 01 00 00 00	 mov	 edx, 1
  00234	d3 e2		 shl	 edx, cl
  00236	8b 45 fc	 mov	 eax, DWORD PTR _s$[ebp]
  00239	89 90 9c 16 00
	00		 mov	 DWORD PTR [eax+5788], edx

; 292  : 
; 293  :     overlay = (ushf *) ZALLOC(strm, s->lit_bufsize, sizeof(ush)+2);

  0023f	6a 04		 push	 4
  00241	8b 4d fc	 mov	 ecx, DWORD PTR _s$[ebp]
  00244	8b 91 9c 16 00
	00		 mov	 edx, DWORD PTR [ecx+5788]
  0024a	52		 push	 edx
  0024b	8b 45 08	 mov	 eax, DWORD PTR _strm$[ebp]
  0024e	8b 48 28	 mov	 ecx, DWORD PTR [eax+40]
  00251	51		 push	 ecx
  00252	8b 55 08	 mov	 edx, DWORD PTR _strm$[ebp]
  00255	8b 42 20	 mov	 eax, DWORD PTR [edx+32]
  00258	ff d0		 call	 eax
  0025a	83 c4 0c	 add	 esp, 12			; 0000000cH
  0025d	89 45 f8	 mov	 DWORD PTR _overlay$[ebp], eax

; 294  :     s->pending_buf = (uchf *) overlay;

  00260	8b 4d fc	 mov	 ecx, DWORD PTR _s$[ebp]
  00263	8b 55 f8	 mov	 edx, DWORD PTR _overlay$[ebp]
  00266	89 51 08	 mov	 DWORD PTR [ecx+8], edx

; 295  :     s->pending_buf_size = (ulg)s->lit_bufsize * (sizeof(ush)+2L);

  00269	8b 45 fc	 mov	 eax, DWORD PTR _s$[ebp]
  0026c	8b 88 9c 16 00
	00		 mov	 ecx, DWORD PTR [eax+5788]
  00272	c1 e1 02	 shl	 ecx, 2
  00275	8b 55 fc	 mov	 edx, DWORD PTR _s$[ebp]
  00278	89 4a 0c	 mov	 DWORD PTR [edx+12], ecx

; 296  : 
; 297  :     if (s->window == Z_NULL || s->prev == Z_NULL || s->head == Z_NULL ||
; 298  :         s->pending_buf == Z_NULL) {

  0027b	8b 45 fc	 mov	 eax, DWORD PTR _s$[ebp]
  0027e	83 78 38 00	 cmp	 DWORD PTR [eax+56], 0
  00282	74 1b		 je	 SHORT $LN1@deflateIni
  00284	8b 4d fc	 mov	 ecx, DWORD PTR _s$[ebp]
  00287	83 79 40 00	 cmp	 DWORD PTR [ecx+64], 0
  0028b	74 12		 je	 SHORT $LN1@deflateIni
  0028d	8b 55 fc	 mov	 edx, DWORD PTR _s$[ebp]
  00290	83 7a 44 00	 cmp	 DWORD PTR [edx+68], 0
  00294	74 09		 je	 SHORT $LN1@deflateIni
  00296	8b 45 fc	 mov	 eax, DWORD PTR _s$[ebp]
  00299	83 78 08 00	 cmp	 DWORD PTR [eax+8], 0
  0029d	75 25		 jne	 SHORT $LN2@deflateIni
$LN1@deflateIni:

; 299  :         s->status = FINISH_STATE;

  0029f	8b 4d fc	 mov	 ecx, DWORD PTR _s$[ebp]
  002a2	c7 41 04 9a 02
	00 00		 mov	 DWORD PTR [ecx+4], 666	; 0000029aH

; 300  :         strm->msg = (char*)ERR_MSG(Z_MEM_ERROR);

  002a9	8b 55 08	 mov	 edx, DWORD PTR _strm$[ebp]
  002ac	a1 18 00 00 00	 mov	 eax, DWORD PTR _z_errmsg+24
  002b1	89 42 18	 mov	 DWORD PTR [edx+24], eax

; 301  :         deflateEnd (strm);

  002b4	8b 4d 08	 mov	 ecx, DWORD PTR _strm$[ebp]
  002b7	51		 push	 ecx
  002b8	e8 00 00 00 00	 call	 _deflateEnd@4

; 302  :         return Z_MEM_ERROR;

  002bd	b8 fc ff ff ff	 mov	 eax, -4			; fffffffcH
  002c2	eb 5f		 jmp	 SHORT $LN16@deflateIni
$LN2@deflateIni:

; 303  :     }
; 304  :     s->d_buf = overlay + s->lit_bufsize/sizeof(ush);

  002c4	8b 55 fc	 mov	 edx, DWORD PTR _s$[ebp]
  002c7	8b 82 9c 16 00
	00		 mov	 eax, DWORD PTR [edx+5788]
  002cd	d1 e8		 shr	 eax, 1
  002cf	8b 4d f8	 mov	 ecx, DWORD PTR _overlay$[ebp]
  002d2	8d 14 41	 lea	 edx, DWORD PTR [ecx+eax*2]
  002d5	8b 45 fc	 mov	 eax, DWORD PTR _s$[ebp]
  002d8	89 90 a4 16 00
	00		 mov	 DWORD PTR [eax+5796], edx

; 305  :     s->l_buf = s->pending_buf + (1+sizeof(ush))*s->lit_bufsize;

  002de	8b 4d fc	 mov	 ecx, DWORD PTR _s$[ebp]
  002e1	8b 91 9c 16 00
	00		 mov	 edx, DWORD PTR [ecx+5788]
  002e7	6b d2 03	 imul	 edx, 3
  002ea	8b 45 fc	 mov	 eax, DWORD PTR _s$[ebp]
  002ed	03 50 08	 add	 edx, DWORD PTR [eax+8]
  002f0	8b 4d fc	 mov	 ecx, DWORD PTR _s$[ebp]
  002f3	89 91 98 16 00
	00		 mov	 DWORD PTR [ecx+5784], edx

; 306  : 
; 307  :     s->level = level;

  002f9	8b 55 fc	 mov	 edx, DWORD PTR _s$[ebp]
  002fc	8b 45 0c	 mov	 eax, DWORD PTR _level$[ebp]
  002ff	89 82 84 00 00
	00		 mov	 DWORD PTR [edx+132], eax

; 308  :     s->strategy = strategy;

  00305	8b 4d fc	 mov	 ecx, DWORD PTR _s$[ebp]
  00308	8b 55 1c	 mov	 edx, DWORD PTR _strategy$[ebp]
  0030b	89 91 88 00 00
	00		 mov	 DWORD PTR [ecx+136], edx

; 309  :     s->method = (Byte)method;

  00311	8b 45 fc	 mov	 eax, DWORD PTR _s$[ebp]
  00314	8a 4d 10	 mov	 cl, BYTE PTR _method$[ebp]
  00317	88 48 24	 mov	 BYTE PTR [eax+36], cl

; 310  : 
; 311  :     return deflateReset(strm);

  0031a	8b 55 08	 mov	 edx, DWORD PTR _strm$[ebp]
  0031d	52		 push	 edx
  0031e	e8 00 00 00 00	 call	 _deflateReset@4
$LN16@deflateIni:

; 312  : }

  00323	8b e5		 mov	 esp, ebp
  00325	5d		 pop	 ebp
  00326	c2 20 00	 ret	 32			; 00000020H
_deflateInit2_@32 ENDP
_TEXT	ENDS
PUBLIC	_deflateInit_@16
; Function compile flags: /Odtp
;	COMDAT _deflateInit_@16
_TEXT	SEGMENT
_strm$ = 8						; size = 4
_level$ = 12						; size = 4
_version$ = 16						; size = 4
_stream_size$ = 20					; size = 4
_deflateInit_@16 PROC					; COMDAT

; 209  : {

  00000	55		 push	 ebp
  00001	8b ec		 mov	 ebp, esp

; 210  :     return deflateInit2_(strm, level, Z_DEFLATED, MAX_WBITS, DEF_MEM_LEVEL,
; 211  :                          Z_DEFAULT_STRATEGY, version, stream_size);

  00003	8b 45 14	 mov	 eax, DWORD PTR _stream_size$[ebp]
  00006	50		 push	 eax
  00007	8b 4d 10	 mov	 ecx, DWORD PTR _version$[ebp]
  0000a	51		 push	 ecx
  0000b	6a 00		 push	 0
  0000d	6a 08		 push	 8
  0000f	6a 0f		 push	 15			; 0000000fH
  00011	6a 08		 push	 8
  00013	8b 55 0c	 mov	 edx, DWORD PTR _level$[ebp]
  00016	52		 push	 edx
  00017	8b 45 08	 mov	 eax, DWORD PTR _strm$[ebp]
  0001a	50		 push	 eax
  0001b	e8 00 00 00 00	 call	 _deflateInit2_@32

; 212  :     /* To do: ignore strm->next_in if we use it as window */
; 213  : }

  00020	5d		 pop	 ebp
  00021	c2 10 00	 ret	 16			; 00000010H
_deflateInit_@16 ENDP
; Function compile flags: /Odtp
;	COMDAT _fill_window
_TEXT	SEGMENT
tv149 = -28						; size = 4
tv138 = -24						; size = 4
_m$ = -20						; size = 4
_wsize$ = -16						; size = 4
_more$ = -12						; size = 4
_n$ = -8						; size = 4
_p$ = -4						; size = 4
_s$ = 8							; size = 4
_fill_window PROC					; COMDAT

; 1268 : {

  00000	55		 push	 ebp
  00001	8b ec		 mov	 ebp, esp
  00003	83 ec 1c	 sub	 esp, 28			; 0000001cH

; 1269 :     register unsigned n, m;
; 1270 :     register Posf *p;
; 1271 :     unsigned more;    /* Amount of free space at the end of the window. */
; 1272 :     uInt wsize = s->w_size;

  00006	8b 45 08	 mov	 eax, DWORD PTR _s$[ebp]
  00009	8b 48 2c	 mov	 ecx, DWORD PTR [eax+44]
  0000c	89 4d f0	 mov	 DWORD PTR _wsize$[ebp], ecx
$LN17@fill_windo:

; 1273 : 
; 1274 :     do {
; 1275 :         more = (unsigned)(s->window_size -(ulg)s->lookahead -(ulg)s->strstart);

  0000f	8b 55 08	 mov	 edx, DWORD PTR _s$[ebp]
  00012	8b 45 08	 mov	 eax, DWORD PTR _s$[ebp]
  00015	8b 4a 3c	 mov	 ecx, DWORD PTR [edx+60]
  00018	2b 48 74	 sub	 ecx, DWORD PTR [eax+116]
  0001b	8b 55 08	 mov	 edx, DWORD PTR _s$[ebp]
  0001e	2b 4a 6c	 sub	 ecx, DWORD PTR [edx+108]
  00021	89 4d f4	 mov	 DWORD PTR _more$[ebp], ecx

; 1276 : 
; 1277 :         /* Deal with !@#$% 64K limit: */
; 1278 :         if (sizeof(int) <= 2) {

  00024	33 c0		 xor	 eax, eax
  00026	74 2f		 je	 SHORT $LN14@fill_windo

; 1279 :             if (more == 0 && s->strstart == 0 && s->lookahead == 0) {

  00028	83 7d f4 00	 cmp	 DWORD PTR _more$[ebp], 0
  0002c	75 1a		 jne	 SHORT $LN13@fill_windo
  0002e	8b 4d 08	 mov	 ecx, DWORD PTR _s$[ebp]
  00031	83 79 6c 00	 cmp	 DWORD PTR [ecx+108], 0
  00035	75 11		 jne	 SHORT $LN13@fill_windo
  00037	8b 55 08	 mov	 edx, DWORD PTR _s$[ebp]
  0003a	83 7a 74 00	 cmp	 DWORD PTR [edx+116], 0
  0003e	75 08		 jne	 SHORT $LN13@fill_windo

; 1280 :                 more = wsize;

  00040	8b 45 f0	 mov	 eax, DWORD PTR _wsize$[ebp]
  00043	89 45 f4	 mov	 DWORD PTR _more$[ebp], eax
  00046	eb 0f		 jmp	 SHORT $LN14@fill_windo
$LN13@fill_windo:

; 1281 : 
; 1282 :             } else if (more == (unsigned)(-1)) {

  00048	83 7d f4 ff	 cmp	 DWORD PTR _more$[ebp], -1
  0004c	75 09		 jne	 SHORT $LN14@fill_windo

; 1283 :                 /* Very unlikely, but possible on 16 bit machine if
; 1284 :                  * strstart == 0 && lookahead == 1 (input done a byte at time)
; 1285 :                  */
; 1286 :                 more--;

  0004e	8b 4d f4	 mov	 ecx, DWORD PTR _more$[ebp]
  00051	83 e9 01	 sub	 ecx, 1
  00054	89 4d f4	 mov	 DWORD PTR _more$[ebp], ecx
$LN14@fill_windo:

; 1287 :             }
; 1288 :         }
; 1289 : 
; 1290 :         /* If the window is almost full and there is insufficient lookahead,
; 1291 :          * move the upper half to the lower one to make room in the upper half.
; 1292 :          */
; 1293 :         if (s->strstart >= wsize+MAX_DIST(s)) {

  00057	8b 55 08	 mov	 edx, DWORD PTR _s$[ebp]
  0005a	8b 42 2c	 mov	 eax, DWORD PTR [edx+44]
  0005d	8b 4d f0	 mov	 ecx, DWORD PTR _wsize$[ebp]
  00060	8d 94 01 fa fe
	ff ff		 lea	 edx, DWORD PTR [ecx+eax-262]
  00067	8b 45 08	 mov	 eax, DWORD PTR _s$[ebp]
  0006a	39 50 6c	 cmp	 DWORD PTR [eax+108], edx
  0006d	0f 82 02 01 00
	00		 jb	 $LN10@fill_windo

; 1294 : 
; 1295 :             zmemcpy(s->window, s->window+wsize, (unsigned)wsize);

  00073	8b 4d f0	 mov	 ecx, DWORD PTR _wsize$[ebp]
  00076	51		 push	 ecx
  00077	8b 55 08	 mov	 edx, DWORD PTR _s$[ebp]
  0007a	8b 42 38	 mov	 eax, DWORD PTR [edx+56]
  0007d	03 45 f0	 add	 eax, DWORD PTR _wsize$[ebp]
  00080	50		 push	 eax
  00081	8b 4d 08	 mov	 ecx, DWORD PTR _s$[ebp]
  00084	8b 51 38	 mov	 edx, DWORD PTR [ecx+56]
  00087	52		 push	 edx
  00088	e8 00 00 00 00	 call	 _memcpy
  0008d	83 c4 0c	 add	 esp, 12			; 0000000cH

; 1296 :             s->match_start -= wsize;

  00090	8b 45 08	 mov	 eax, DWORD PTR _s$[ebp]
  00093	8b 48 70	 mov	 ecx, DWORD PTR [eax+112]
  00096	2b 4d f0	 sub	 ecx, DWORD PTR _wsize$[ebp]
  00099	8b 55 08	 mov	 edx, DWORD PTR _s$[ebp]
  0009c	89 4a 70	 mov	 DWORD PTR [edx+112], ecx

; 1297 :             s->strstart    -= wsize; /* we now have strstart >= MAX_DIST */

  0009f	8b 45 08	 mov	 eax, DWORD PTR _s$[ebp]
  000a2	8b 48 6c	 mov	 ecx, DWORD PTR [eax+108]
  000a5	2b 4d f0	 sub	 ecx, DWORD PTR _wsize$[ebp]
  000a8	8b 55 08	 mov	 edx, DWORD PTR _s$[ebp]
  000ab	89 4a 6c	 mov	 DWORD PTR [edx+108], ecx

; 1298 :             s->block_start -= (long) wsize;

  000ae	8b 45 08	 mov	 eax, DWORD PTR _s$[ebp]
  000b1	8b 48 5c	 mov	 ecx, DWORD PTR [eax+92]
  000b4	2b 4d f0	 sub	 ecx, DWORD PTR _wsize$[ebp]
  000b7	8b 55 08	 mov	 edx, DWORD PTR _s$[ebp]
  000ba	89 4a 5c	 mov	 DWORD PTR [edx+92], ecx

; 1299 : 
; 1300 :             /* Slide the hash table (could be avoided with 32 bit values
; 1301 :                at the expense of memory usage). We slide even when level == 0
; 1302 :                to keep the hash table consistent if we switch back to level > 0
; 1303 :                later. (Using level 0 permanently is not an optimal usage of
; 1304 :                zlib, so we don't care about this pathological case.)
; 1305 :              */
; 1306 :             /* %%% avoid this when Z_RLE */
; 1307 :             n = s->hash_size;

  000bd	8b 45 08	 mov	 eax, DWORD PTR _s$[ebp]
  000c0	8b 48 4c	 mov	 ecx, DWORD PTR [eax+76]
  000c3	89 4d f8	 mov	 DWORD PTR _n$[ebp], ecx

; 1308 :             p = &s->head[n];

  000c6	8b 55 08	 mov	 edx, DWORD PTR _s$[ebp]
  000c9	8b 42 44	 mov	 eax, DWORD PTR [edx+68]
  000cc	8b 4d f8	 mov	 ecx, DWORD PTR _n$[ebp]
  000cf	8d 14 48	 lea	 edx, DWORD PTR [eax+ecx*2]
  000d2	89 55 fc	 mov	 DWORD PTR _p$[ebp], edx
$LN9@fill_windo:

; 1309 :             do {
; 1310 :                 m = *--p;

  000d5	8b 45 fc	 mov	 eax, DWORD PTR _p$[ebp]
  000d8	83 e8 02	 sub	 eax, 2
  000db	89 45 fc	 mov	 DWORD PTR _p$[ebp], eax
  000de	8b 4d fc	 mov	 ecx, DWORD PTR _p$[ebp]
  000e1	0f b7 11	 movzx	 edx, WORD PTR [ecx]
  000e4	89 55 ec	 mov	 DWORD PTR _m$[ebp], edx

; 1311 :                 *p = (Pos)(m >= wsize ? m-wsize : NIL);

  000e7	8b 45 ec	 mov	 eax, DWORD PTR _m$[ebp]
  000ea	3b 45 f0	 cmp	 eax, DWORD PTR _wsize$[ebp]
  000ed	72 0b		 jb	 SHORT $LN20@fill_windo
  000ef	8b 4d ec	 mov	 ecx, DWORD PTR _m$[ebp]
  000f2	2b 4d f0	 sub	 ecx, DWORD PTR _wsize$[ebp]
  000f5	89 4d e8	 mov	 DWORD PTR tv138[ebp], ecx
  000f8	eb 07		 jmp	 SHORT $LN21@fill_windo
$LN20@fill_windo:
  000fa	c7 45 e8 00 00
	00 00		 mov	 DWORD PTR tv138[ebp], 0
$LN21@fill_windo:
  00101	8b 55 fc	 mov	 edx, DWORD PTR _p$[ebp]
  00104	66 8b 45 e8	 mov	 ax, WORD PTR tv138[ebp]
  00108	66 89 02	 mov	 WORD PTR [edx], ax

; 1312 :             } while (--n);

  0010b	8b 4d f8	 mov	 ecx, DWORD PTR _n$[ebp]
  0010e	83 e9 01	 sub	 ecx, 1
  00111	89 4d f8	 mov	 DWORD PTR _n$[ebp], ecx
  00114	75 bf		 jne	 SHORT $LN9@fill_windo

; 1313 : 
; 1314 :             n = wsize;

  00116	8b 55 f0	 mov	 edx, DWORD PTR _wsize$[ebp]
  00119	89 55 f8	 mov	 DWORD PTR _n$[ebp], edx

; 1315 : #ifndef FASTEST
; 1316 :             p = &s->prev[n];

  0011c	8b 45 08	 mov	 eax, DWORD PTR _s$[ebp]
  0011f	8b 48 40	 mov	 ecx, DWORD PTR [eax+64]
  00122	8b 55 f8	 mov	 edx, DWORD PTR _n$[ebp]
  00125	8d 04 51	 lea	 eax, DWORD PTR [ecx+edx*2]
  00128	89 45 fc	 mov	 DWORD PTR _p$[ebp], eax
$LN6@fill_windo:

; 1317 :             do {
; 1318 :                 m = *--p;

  0012b	8b 4d fc	 mov	 ecx, DWORD PTR _p$[ebp]
  0012e	83 e9 02	 sub	 ecx, 2
  00131	89 4d fc	 mov	 DWORD PTR _p$[ebp], ecx
  00134	8b 55 fc	 mov	 edx, DWORD PTR _p$[ebp]
  00137	0f b7 02	 movzx	 eax, WORD PTR [edx]
  0013a	89 45 ec	 mov	 DWORD PTR _m$[ebp], eax

; 1319 :                 *p = (Pos)(m >= wsize ? m-wsize : NIL);

  0013d	8b 4d ec	 mov	 ecx, DWORD PTR _m$[ebp]
  00140	3b 4d f0	 cmp	 ecx, DWORD PTR _wsize$[ebp]
  00143	72 0b		 jb	 SHORT $LN22@fill_windo
  00145	8b 55 ec	 mov	 edx, DWORD PTR _m$[ebp]
  00148	2b 55 f0	 sub	 edx, DWORD PTR _wsize$[ebp]
  0014b	89 55 e4	 mov	 DWORD PTR tv149[ebp], edx
  0014e	eb 07		 jmp	 SHORT $LN23@fill_windo
$LN22@fill_windo:
  00150	c7 45 e4 00 00
	00 00		 mov	 DWORD PTR tv149[ebp], 0
$LN23@fill_windo:
  00157	8b 45 fc	 mov	 eax, DWORD PTR _p$[ebp]
  0015a	66 8b 4d e4	 mov	 cx, WORD PTR tv149[ebp]
  0015e	66 89 08	 mov	 WORD PTR [eax], cx

; 1320 :                 /* If n is not on any hash chain, prev[n] is garbage but
; 1321 :                  * its value will never be used.
; 1322 :                  */
; 1323 :             } while (--n);

  00161	8b 55 f8	 mov	 edx, DWORD PTR _n$[ebp]
  00164	83 ea 01	 sub	 edx, 1
  00167	89 55 f8	 mov	 DWORD PTR _n$[ebp], edx
  0016a	75 bf		 jne	 SHORT $LN6@fill_windo

; 1324 : #endif
; 1325 :             more += wsize;

  0016c	8b 45 f4	 mov	 eax, DWORD PTR _more$[ebp]
  0016f	03 45 f0	 add	 eax, DWORD PTR _wsize$[ebp]
  00172	89 45 f4	 mov	 DWORD PTR _more$[ebp], eax
$LN10@fill_windo:

; 1326 :         }
; 1327 :         if (s->strm->avail_in == 0) return;

  00175	8b 4d 08	 mov	 ecx, DWORD PTR _s$[ebp]
  00178	8b 11		 mov	 edx, DWORD PTR [ecx]
  0017a	83 7a 04 00	 cmp	 DWORD PTR [edx+4], 0
  0017e	75 05		 jne	 SHORT $LN3@fill_windo
  00180	e9 9e 00 00 00	 jmp	 $LN18@fill_windo
$LN3@fill_windo:

; 1328 : 
; 1329 :         /* If there was no sliding:
; 1330 :          *    strstart <= WSIZE+MAX_DIST-1 && lookahead <= MIN_LOOKAHEAD - 1 &&
; 1331 :          *    more == window_size - lookahead - strstart
; 1332 :          * => more >= window_size - (MIN_LOOKAHEAD-1 + WSIZE + MAX_DIST-1)
; 1333 :          * => more >= window_size - 2*WSIZE + 2
; 1334 :          * In the BIG_MEM or MMAP case (not yet supported),
; 1335 :          *   window_size == input_size + MIN_LOOKAHEAD  &&
; 1336 :          *   strstart + s->lookahead <= input_size => more >= MIN_LOOKAHEAD.
; 1337 :          * Otherwise, window_size == 2*WSIZE so more >= 2.
; 1338 :          * If there was sliding, more >= WSIZE. So in all cases, more >= 2.
; 1339 :          */
; 1340 :         Assert(more >= 2, "more < 2");
; 1341 : 
; 1342 :         n = read_buf(s->strm, s->window + s->strstart + s->lookahead, more);

  00185	8b 45 f4	 mov	 eax, DWORD PTR _more$[ebp]
  00188	50		 push	 eax
  00189	8b 4d 08	 mov	 ecx, DWORD PTR _s$[ebp]
  0018c	8b 51 38	 mov	 edx, DWORD PTR [ecx+56]
  0018f	8b 45 08	 mov	 eax, DWORD PTR _s$[ebp]
  00192	03 50 6c	 add	 edx, DWORD PTR [eax+108]
  00195	8b 4d 08	 mov	 ecx, DWORD PTR _s$[ebp]
  00198	03 51 74	 add	 edx, DWORD PTR [ecx+116]
  0019b	52		 push	 edx
  0019c	8b 55 08	 mov	 edx, DWORD PTR _s$[ebp]
  0019f	8b 02		 mov	 eax, DWORD PTR [edx]
  001a1	50		 push	 eax
  001a2	e8 00 00 00 00	 call	 _read_buf
  001a7	83 c4 0c	 add	 esp, 12			; 0000000cH
  001aa	89 45 f8	 mov	 DWORD PTR _n$[ebp], eax

; 1343 :         s->lookahead += n;

  001ad	8b 4d 08	 mov	 ecx, DWORD PTR _s$[ebp]
  001b0	8b 51 74	 mov	 edx, DWORD PTR [ecx+116]
  001b3	03 55 f8	 add	 edx, DWORD PTR _n$[ebp]
  001b6	8b 45 08	 mov	 eax, DWORD PTR _s$[ebp]
  001b9	89 50 74	 mov	 DWORD PTR [eax+116], edx

; 1344 : 
; 1345 :         /* Initialize the hash value now that we have some input: */
; 1346 :         if (s->lookahead >= MIN_MATCH) {

  001bc	8b 4d 08	 mov	 ecx, DWORD PTR _s$[ebp]
  001bf	83 79 74 03	 cmp	 DWORD PTR [ecx+116], 3
  001c3	72 43		 jb	 SHORT $LN16@fill_windo

; 1347 :             s->ins_h = s->window[s->strstart];

  001c5	8b 55 08	 mov	 edx, DWORD PTR _s$[ebp]
  001c8	8b 42 38	 mov	 eax, DWORD PTR [edx+56]
  001cb	8b 4d 08	 mov	 ecx, DWORD PTR _s$[ebp]
  001ce	8b 51 6c	 mov	 edx, DWORD PTR [ecx+108]
  001d1	0f b6 04 10	 movzx	 eax, BYTE PTR [eax+edx]
  001d5	8b 4d 08	 mov	 ecx, DWORD PTR _s$[ebp]
  001d8	89 41 48	 mov	 DWORD PTR [ecx+72], eax

; 1348 :             UPDATE_HASH(s, s->ins_h, s->window[s->strstart+1]);

  001db	8b 55 08	 mov	 edx, DWORD PTR _s$[ebp]
  001de	8b 45 08	 mov	 eax, DWORD PTR _s$[ebp]
  001e1	8b 52 48	 mov	 edx, DWORD PTR [edx+72]
  001e4	8b 48 58	 mov	 ecx, DWORD PTR [eax+88]
  001e7	d3 e2		 shl	 edx, cl
  001e9	8b 45 08	 mov	 eax, DWORD PTR _s$[ebp]
  001ec	8b 48 6c	 mov	 ecx, DWORD PTR [eax+108]
  001ef	8b 45 08	 mov	 eax, DWORD PTR _s$[ebp]
  001f2	8b 40 38	 mov	 eax, DWORD PTR [eax+56]
  001f5	0f b6 4c 08 01	 movzx	 ecx, BYTE PTR [eax+ecx+1]
  001fa	33 d1		 xor	 edx, ecx
  001fc	8b 45 08	 mov	 eax, DWORD PTR _s$[ebp]
  001ff	23 50 54	 and	 edx, DWORD PTR [eax+84]
  00202	8b 4d 08	 mov	 ecx, DWORD PTR _s$[ebp]
  00205	89 51 48	 mov	 DWORD PTR [ecx+72], edx
$LN16@fill_windo:

; 1349 : #if MIN_MATCH != 3
; 1350 :             Call UPDATE_HASH() MIN_MATCH-3 more times
; 1351 : #endif
; 1352 :         }
; 1353 :         /* If the whole input has less than MIN_MATCH bytes, ins_h is garbage,
; 1354 :          * but this is not important since only literal bytes will be emitted.
; 1355 :          */
; 1356 : 
; 1357 :     } while (s->lookahead < MIN_LOOKAHEAD && s->strm->avail_in != 0);

  00208	8b 55 08	 mov	 edx, DWORD PTR _s$[ebp]
  0020b	81 7a 74 06 01
	00 00		 cmp	 DWORD PTR [edx+116], 262 ; 00000106H
  00212	73 0f		 jae	 SHORT $LN18@fill_windo
  00214	8b 45 08	 mov	 eax, DWORD PTR _s$[ebp]
  00217	8b 08		 mov	 ecx, DWORD PTR [eax]
  00219	83 79 04 00	 cmp	 DWORD PTR [ecx+4], 0
  0021d	0f 85 ec fd ff
	ff		 jne	 $LN17@fill_windo
$LN18@fill_windo:

; 1358 : }

  00223	8b e5		 mov	 esp, ebp
  00225	5d		 pop	 ebp
  00226	c3		 ret	 0
_fill_window ENDP
; Function compile flags: /Odtp
;	COMDAT _deflate_slow
_TEXT	SEGMENT
tv453 = -40						; size = 4
tv381 = -36						; size = 4
tv328 = -32						; size = 4
tv244 = -28						; size = 4
_cc$78126 = -22						; size = 1
_cc$78116 = -21						; size = 1
_dist$78101 = -20					; size = 2
_len$78100 = -13					; size = 1
_max_insert$78099 = -12					; size = 4
_hash_head$ = -8					; size = 4
_bflush$ = -4						; size = 4
_s$ = 8							; size = 4
_flush$ = 12						; size = 4
_deflate_slow PROC					; COMDAT

; 1557 : {

  00000	55		 push	 ebp
  00001	8b ec		 mov	 ebp, esp
  00003	83 ec 28	 sub	 esp, 40			; 00000028H
  00006	56		 push	 esi

; 1558 :     IPos hash_head = NIL;    /* head of hash chain */

  00007	c7 45 f8 00 00
	00 00		 mov	 DWORD PTR _hash_head$[ebp], 0
$LN26@deflate_sl:

; 1559 :     int bflush;              /* set if current block must be flushed */
; 1560 : 
; 1561 :     /* Process the input block. */
; 1562 :     for (;;) {
; 1563 :         /* Make sure that we always have enough lookahead, except
; 1564 :          * at the end of the input file. We need MAX_MATCH bytes
; 1565 :          * for the next match, plus MIN_MATCH bytes to insert the
; 1566 :          * string following the next match.
; 1567 :          */
; 1568 :         if (s->lookahead < MIN_LOOKAHEAD) {

  0000e	8b 45 08	 mov	 eax, DWORD PTR _s$[ebp]
  00011	81 78 74 06 01
	00 00		 cmp	 DWORD PTR [eax+116], 262 ; 00000106H
  00018	73 33		 jae	 SHORT $LN24@deflate_sl

; 1569 :             fill_window(s);

  0001a	8b 4d 08	 mov	 ecx, DWORD PTR _s$[ebp]
  0001d	51		 push	 ecx
  0001e	e8 00 00 00 00	 call	 _fill_window
  00023	83 c4 04	 add	 esp, 4

; 1570 :             if (s->lookahead < MIN_LOOKAHEAD && flush == Z_NO_FLUSH) {

  00026	8b 55 08	 mov	 edx, DWORD PTR _s$[ebp]
  00029	81 7a 74 06 01
	00 00		 cmp	 DWORD PTR [edx+116], 262 ; 00000106H
  00030	73 0d		 jae	 SHORT $LN23@deflate_sl
  00032	83 7d 0c 00	 cmp	 DWORD PTR _flush$[ebp], 0
  00036	75 07		 jne	 SHORT $LN23@deflate_sl

; 1571 :                 return need_more;

  00038	33 c0		 xor	 eax, eax
  0003a	e9 ef 06 00 00	 jmp	 $LN27@deflate_sl
$LN23@deflate_sl:

; 1572 :             }
; 1573 :             if (s->lookahead == 0) break; /* flush the current block */

  0003f	8b 45 08	 mov	 eax, DWORD PTR _s$[ebp]
  00042	83 78 74 00	 cmp	 DWORD PTR [eax+116], 0
  00046	75 05		 jne	 SHORT $LN24@deflate_sl
  00048	e9 a8 05 00 00	 jmp	 $LN25@deflate_sl
$LN24@deflate_sl:

; 1574 :         }
; 1575 : 
; 1576 :         /* Insert the string window[strstart .. strstart+2] in the
; 1577 :          * dictionary, and set hash_head to the head of the hash chain:
; 1578 :          */
; 1579 :         if (s->lookahead >= MIN_MATCH) {

  0004d	8b 4d 08	 mov	 ecx, DWORD PTR _s$[ebp]
  00050	83 79 74 03	 cmp	 DWORD PTR [ecx+116], 3
  00054	0f 82 83 00 00
	00		 jb	 $LN21@deflate_sl

; 1580 :             INSERT_STRING(s, s->strstart, hash_head);

  0005a	8b 55 08	 mov	 edx, DWORD PTR _s$[ebp]
  0005d	8b 45 08	 mov	 eax, DWORD PTR _s$[ebp]
  00060	8b 52 48	 mov	 edx, DWORD PTR [edx+72]
  00063	8b 48 58	 mov	 ecx, DWORD PTR [eax+88]
  00066	d3 e2		 shl	 edx, cl
  00068	8b 45 08	 mov	 eax, DWORD PTR _s$[ebp]
  0006b	8b 48 6c	 mov	 ecx, DWORD PTR [eax+108]
  0006e	8b 45 08	 mov	 eax, DWORD PTR _s$[ebp]
  00071	8b 40 38	 mov	 eax, DWORD PTR [eax+56]
  00074	0f b6 4c 08 02	 movzx	 ecx, BYTE PTR [eax+ecx+2]
  00079	33 d1		 xor	 edx, ecx
  0007b	8b 45 08	 mov	 eax, DWORD PTR _s$[ebp]
  0007e	23 50 54	 and	 edx, DWORD PTR [eax+84]
  00081	8b 4d 08	 mov	 ecx, DWORD PTR _s$[ebp]
  00084	89 51 48	 mov	 DWORD PTR [ecx+72], edx
  00087	8b 55 08	 mov	 edx, DWORD PTR _s$[ebp]
  0008a	8b 42 48	 mov	 eax, DWORD PTR [edx+72]
  0008d	8b 4d 08	 mov	 ecx, DWORD PTR _s$[ebp]
  00090	8b 51 44	 mov	 edx, DWORD PTR [ecx+68]
  00093	8b 4d 08	 mov	 ecx, DWORD PTR _s$[ebp]
  00096	8b 75 08	 mov	 esi, DWORD PTR _s$[ebp]
  00099	8b 49 6c	 mov	 ecx, DWORD PTR [ecx+108]
  0009c	23 4e 34	 and	 ecx, DWORD PTR [esi+52]
  0009f	8b 75 08	 mov	 esi, DWORD PTR _s$[ebp]
  000a2	8b 76 40	 mov	 esi, DWORD PTR [esi+64]
  000a5	66 8b 14 42	 mov	 dx, WORD PTR [edx+eax*2]
  000a9	66 89 14 4e	 mov	 WORD PTR [esi+ecx*2], dx
  000ad	8b 45 08	 mov	 eax, DWORD PTR _s$[ebp]
  000b0	8b 4d 08	 mov	 ecx, DWORD PTR _s$[ebp]
  000b3	8b 50 6c	 mov	 edx, DWORD PTR [eax+108]
  000b6	23 51 34	 and	 edx, DWORD PTR [ecx+52]
  000b9	8b 45 08	 mov	 eax, DWORD PTR _s$[ebp]
  000bc	8b 48 40	 mov	 ecx, DWORD PTR [eax+64]
  000bf	0f b7 14 51	 movzx	 edx, WORD PTR [ecx+edx*2]
  000c3	89 55 f8	 mov	 DWORD PTR _hash_head$[ebp], edx
  000c6	8b 45 08	 mov	 eax, DWORD PTR _s$[ebp]
  000c9	8b 48 48	 mov	 ecx, DWORD PTR [eax+72]
  000cc	8b 55 08	 mov	 edx, DWORD PTR _s$[ebp]
  000cf	8b 42 44	 mov	 eax, DWORD PTR [edx+68]
  000d2	8b 55 08	 mov	 edx, DWORD PTR _s$[ebp]
  000d5	66 8b 52 6c	 mov	 dx, WORD PTR [edx+108]
  000d9	66 89 14 48	 mov	 WORD PTR [eax+ecx*2], dx
$LN21@deflate_sl:

; 1581 :         }
; 1582 : 
; 1583 :         /* Find the longest match, discarding those <= prev_length.
; 1584 :          */
; 1585 :         s->prev_length = s->match_length, s->prev_match = s->match_start;

  000dd	8b 45 08	 mov	 eax, DWORD PTR _s$[ebp]
  000e0	8b 4d 08	 mov	 ecx, DWORD PTR _s$[ebp]
  000e3	8b 51 60	 mov	 edx, DWORD PTR [ecx+96]
  000e6	89 50 78	 mov	 DWORD PTR [eax+120], edx
  000e9	8b 45 08	 mov	 eax, DWORD PTR _s$[ebp]
  000ec	8b 4d 08	 mov	 ecx, DWORD PTR _s$[ebp]
  000ef	8b 51 70	 mov	 edx, DWORD PTR [ecx+112]
  000f2	89 50 64	 mov	 DWORD PTR [eax+100], edx

; 1586 :         s->match_length = MIN_MATCH-1;

  000f5	8b 45 08	 mov	 eax, DWORD PTR _s$[ebp]
  000f8	c7 40 60 02 00
	00 00		 mov	 DWORD PTR [eax+96], 2

; 1587 : 
; 1588 :         if (hash_head != NIL && s->prev_length < s->max_lazy_match &&
; 1589 :             s->strstart - hash_head <= MAX_DIST(s)) {

  000ff	83 7d f8 00	 cmp	 DWORD PTR _hash_head$[ebp], 0
  00103	0f 84 ce 00 00
	00		 je	 $LN20@deflate_sl
  00109	8b 4d 08	 mov	 ecx, DWORD PTR _s$[ebp]
  0010c	8b 55 08	 mov	 edx, DWORD PTR _s$[ebp]
  0010f	8b 41 78	 mov	 eax, DWORD PTR [ecx+120]
  00112	3b 82 80 00 00
	00		 cmp	 eax, DWORD PTR [edx+128]
  00118	0f 83 b9 00 00
	00		 jae	 $LN20@deflate_sl
  0011e	8b 4d 08	 mov	 ecx, DWORD PTR _s$[ebp]
  00121	8b 51 6c	 mov	 edx, DWORD PTR [ecx+108]
  00124	2b 55 f8	 sub	 edx, DWORD PTR _hash_head$[ebp]
  00127	8b 45 08	 mov	 eax, DWORD PTR _s$[ebp]
  0012a	8b 48 2c	 mov	 ecx, DWORD PTR [eax+44]
  0012d	81 e9 06 01 00
	00		 sub	 ecx, 262		; 00000106H
  00133	3b d1		 cmp	 edx, ecx
  00135	0f 87 9c 00 00
	00		 ja	 $LN20@deflate_sl

; 1590 :             /* To simplify the code, we prevent matches with the string
; 1591 :              * of window index 0 (in particular we have to avoid a match
; 1592 :              * of the string with itself at the start of the input file).
; 1593 :              */
; 1594 :             if (s->strategy != Z_HUFFMAN_ONLY && s->strategy != Z_RLE) {

  0013b	8b 55 08	 mov	 edx, DWORD PTR _s$[ebp]
  0013e	83 ba 88 00 00
	00 02		 cmp	 DWORD PTR [edx+136], 2
  00145	74 24		 je	 SHORT $LN19@deflate_sl
  00147	8b 45 08	 mov	 eax, DWORD PTR _s$[ebp]
  0014a	83 b8 88 00 00
	00 03		 cmp	 DWORD PTR [eax+136], 3
  00151	74 18		 je	 SHORT $LN19@deflate_sl

; 1595 :                 s->match_length = longest_match (s, hash_head);

  00153	8b 4d f8	 mov	 ecx, DWORD PTR _hash_head$[ebp]
  00156	51		 push	 ecx
  00157	8b 55 08	 mov	 edx, DWORD PTR _s$[ebp]
  0015a	52		 push	 edx
  0015b	e8 00 00 00 00	 call	 _longest_match
  00160	83 c4 08	 add	 esp, 8
  00163	8b 4d 08	 mov	 ecx, DWORD PTR _s$[ebp]
  00166	89 41 60	 mov	 DWORD PTR [ecx+96], eax
  00169	eb 30		 jmp	 SHORT $LN18@deflate_sl
$LN19@deflate_sl:

; 1596 :             } else if (s->strategy == Z_RLE && s->strstart - hash_head == 1) {

  0016b	8b 55 08	 mov	 edx, DWORD PTR _s$[ebp]
  0016e	83 ba 88 00 00
	00 03		 cmp	 DWORD PTR [edx+136], 3
  00175	75 24		 jne	 SHORT $LN18@deflate_sl
  00177	8b 45 08	 mov	 eax, DWORD PTR _s$[ebp]
  0017a	8b 48 6c	 mov	 ecx, DWORD PTR [eax+108]
  0017d	2b 4d f8	 sub	 ecx, DWORD PTR _hash_head$[ebp]
  00180	83 f9 01	 cmp	 ecx, 1
  00183	75 16		 jne	 SHORT $LN18@deflate_sl

; 1597 :                 s->match_length = longest_match_fast (s, hash_head);

  00185	8b 55 f8	 mov	 edx, DWORD PTR _hash_head$[ebp]
  00188	52		 push	 edx
  00189	8b 45 08	 mov	 eax, DWORD PTR _s$[ebp]
  0018c	50		 push	 eax
  0018d	e8 00 00 00 00	 call	 _longest_match_fast
  00192	83 c4 08	 add	 esp, 8
  00195	8b 4d 08	 mov	 ecx, DWORD PTR _s$[ebp]
  00198	89 41 60	 mov	 DWORD PTR [ecx+96], eax
$LN18@deflate_sl:

; 1598 :             }
; 1599 :             /* longest_match() or longest_match_fast() sets match_start */
; 1600 : 
; 1601 :             if (s->match_length <= 5 && (s->strategy == Z_FILTERED
; 1602 : #if TOO_FAR <= 32767
; 1603 :                 || (s->match_length == MIN_MATCH &&
; 1604 :                     s->strstart - s->match_start > TOO_FAR)
; 1605 : #endif
; 1606 :                 )) {

  0019b	8b 55 08	 mov	 edx, DWORD PTR _s$[ebp]
  0019e	83 7a 60 05	 cmp	 DWORD PTR [edx+96], 5
  001a2	77 33		 ja	 SHORT $LN20@deflate_sl
  001a4	8b 45 08	 mov	 eax, DWORD PTR _s$[ebp]
  001a7	83 b8 88 00 00
	00 01		 cmp	 DWORD PTR [eax+136], 1
  001ae	74 1d		 je	 SHORT $LN15@deflate_sl
  001b0	8b 4d 08	 mov	 ecx, DWORD PTR _s$[ebp]
  001b3	83 79 60 03	 cmp	 DWORD PTR [ecx+96], 3
  001b7	75 1e		 jne	 SHORT $LN20@deflate_sl
  001b9	8b 55 08	 mov	 edx, DWORD PTR _s$[ebp]
  001bc	8b 45 08	 mov	 eax, DWORD PTR _s$[ebp]
  001bf	8b 4a 6c	 mov	 ecx, DWORD PTR [edx+108]
  001c2	2b 48 70	 sub	 ecx, DWORD PTR [eax+112]
  001c5	81 f9 00 10 00
	00		 cmp	 ecx, 4096		; 00001000H
  001cb	76 0a		 jbe	 SHORT $LN20@deflate_sl
$LN15@deflate_sl:

; 1607 : 
; 1608 :                 /* If prev_match is also MIN_MATCH, match_start is garbage
; 1609 :                  * but we will ignore the current match anyway.
; 1610 :                  */
; 1611 :                 s->match_length = MIN_MATCH-1;

  001cd	8b 55 08	 mov	 edx, DWORD PTR _s$[ebp]
  001d0	c7 42 60 02 00
	00 00		 mov	 DWORD PTR [edx+96], 2
$LN20@deflate_sl:

; 1612 :             }
; 1613 :         }
; 1614 :         /* If there was a match at the previous step and the current
; 1615 :          * match is not better, output the previous match:
; 1616 :          */
; 1617 :         if (s->prev_length >= MIN_MATCH && s->match_length <= s->prev_length) {

  001d7	8b 45 08	 mov	 eax, DWORD PTR _s$[ebp]
  001da	83 78 78 03	 cmp	 DWORD PTR [eax+120], 3
  001de	0f 82 ae 02 00
	00		 jb	 $LN14@deflate_sl
  001e4	8b 4d 08	 mov	 ecx, DWORD PTR _s$[ebp]
  001e7	8b 55 08	 mov	 edx, DWORD PTR _s$[ebp]
  001ea	8b 41 60	 mov	 eax, DWORD PTR [ecx+96]
  001ed	3b 42 78	 cmp	 eax, DWORD PTR [edx+120]
  001f0	0f 87 9c 02 00
	00		 ja	 $LN14@deflate_sl

; 1618 :             uInt max_insert = s->strstart + s->lookahead - MIN_MATCH;

  001f6	8b 4d 08	 mov	 ecx, DWORD PTR _s$[ebp]
  001f9	8b 51 6c	 mov	 edx, DWORD PTR [ecx+108]
  001fc	8b 45 08	 mov	 eax, DWORD PTR _s$[ebp]
  001ff	8b 48 74	 mov	 ecx, DWORD PTR [eax+116]
  00202	8d 54 0a fd	 lea	 edx, DWORD PTR [edx+ecx-3]
  00206	89 55 f4	 mov	 DWORD PTR _max_insert$78099[ebp], edx

; 1619 :             /* Do not insert strings in hash table beyond this. */
; 1620 : 
; 1621 :             check_match(s, s->strstart-1, s->prev_match, s->prev_length);
; 1622 : 
; 1623 :             _tr_tally_dist(s, s->strstart -1 - s->prev_match,
; 1624 :                            s->prev_length - MIN_MATCH, bflush);

  00209	8b 45 08	 mov	 eax, DWORD PTR _s$[ebp]
  0020c	8b 48 78	 mov	 ecx, DWORD PTR [eax+120]
  0020f	83 e9 03	 sub	 ecx, 3
  00212	88 4d f3	 mov	 BYTE PTR _len$78100[ebp], cl
  00215	8b 55 08	 mov	 edx, DWORD PTR _s$[ebp]
  00218	8b 42 6c	 mov	 eax, DWORD PTR [edx+108]
  0021b	83 e8 01	 sub	 eax, 1
  0021e	8b 4d 08	 mov	 ecx, DWORD PTR _s$[ebp]
  00221	2b 41 64	 sub	 eax, DWORD PTR [ecx+100]
  00224	66 89 45 ec	 mov	 WORD PTR _dist$78101[ebp], ax
  00228	8b 55 08	 mov	 edx, DWORD PTR _s$[ebp]
  0022b	8b 82 a0 16 00
	00		 mov	 eax, DWORD PTR [edx+5792]
  00231	8b 4d 08	 mov	 ecx, DWORD PTR _s$[ebp]
  00234	8b 91 a4 16 00
	00		 mov	 edx, DWORD PTR [ecx+5796]
  0023a	66 8b 4d ec	 mov	 cx, WORD PTR _dist$78101[ebp]
  0023e	66 89 0c 42	 mov	 WORD PTR [edx+eax*2], cx
  00242	8b 55 08	 mov	 edx, DWORD PTR _s$[ebp]
  00245	8b 82 98 16 00
	00		 mov	 eax, DWORD PTR [edx+5784]
  0024b	8b 4d 08	 mov	 ecx, DWORD PTR _s$[ebp]
  0024e	8b 91 a0 16 00
	00		 mov	 edx, DWORD PTR [ecx+5792]
  00254	8a 4d f3	 mov	 cl, BYTE PTR _len$78100[ebp]
  00257	88 0c 10	 mov	 BYTE PTR [eax+edx], cl
  0025a	8b 55 08	 mov	 edx, DWORD PTR _s$[ebp]
  0025d	8b 82 a0 16 00
	00		 mov	 eax, DWORD PTR [edx+5792]
  00263	83 c0 01	 add	 eax, 1
  00266	8b 4d 08	 mov	 ecx, DWORD PTR _s$[ebp]
  00269	89 81 a0 16 00
	00		 mov	 DWORD PTR [ecx+5792], eax
  0026f	66 8b 55 ec	 mov	 dx, WORD PTR _dist$78101[ebp]
  00273	66 83 ea 01	 sub	 dx, 1
  00277	66 89 55 ec	 mov	 WORD PTR _dist$78101[ebp], dx
  0027b	0f b6 45 f3	 movzx	 eax, BYTE PTR _len$78100[ebp]
  0027f	0f b6 88 00 00
	00 00		 movzx	 ecx, BYTE PTR __length_code[eax]
  00286	8b 55 08	 mov	 edx, DWORD PTR _s$[ebp]
  00289	66 8b 84 8a 98
	04 00 00	 mov	 ax, WORD PTR [edx+ecx*4+1176]
  00291	66 83 c0 01	 add	 ax, 1
  00295	0f b6 4d f3	 movzx	 ecx, BYTE PTR _len$78100[ebp]
  00299	0f b6 91 00 00
	00 00		 movzx	 edx, BYTE PTR __length_code[ecx]
  002a0	8b 4d 08	 mov	 ecx, DWORD PTR _s$[ebp]
  002a3	66 89 84 91 98
	04 00 00	 mov	 WORD PTR [ecx+edx*4+1176], ax
  002ab	0f b7 55 ec	 movzx	 edx, WORD PTR _dist$78101[ebp]
  002af	81 fa 00 01 00
	00		 cmp	 edx, 256		; 00000100H
  002b5	7d 10		 jge	 SHORT $LN29@deflate_sl
  002b7	0f b7 45 ec	 movzx	 eax, WORD PTR _dist$78101[ebp]
  002bb	0f b6 88 00 00
	00 00		 movzx	 ecx, BYTE PTR __dist_code[eax]
  002c2	89 4d e4	 mov	 DWORD PTR tv244[ebp], ecx
  002c5	eb 11		 jmp	 SHORT $LN30@deflate_sl
$LN29@deflate_sl:
  002c7	0f b7 55 ec	 movzx	 edx, WORD PTR _dist$78101[ebp]
  002cb	c1 fa 07	 sar	 edx, 7
  002ce	0f b6 82 00 01
	00 00		 movzx	 eax, BYTE PTR __dist_code[edx+256]
  002d5	89 45 e4	 mov	 DWORD PTR tv244[ebp], eax
$LN30@deflate_sl:
  002d8	8b 4d e4	 mov	 ecx, DWORD PTR tv244[ebp]
  002db	8b 55 08	 mov	 edx, DWORD PTR _s$[ebp]
  002de	66 8b 84 8a 88
	09 00 00	 mov	 ax, WORD PTR [edx+ecx*4+2440]
  002e6	66 83 c0 01	 add	 ax, 1
  002ea	8b 4d e4	 mov	 ecx, DWORD PTR tv244[ebp]
  002ed	8b 55 08	 mov	 edx, DWORD PTR _s$[ebp]
  002f0	66 89 84 8a 88
	09 00 00	 mov	 WORD PTR [edx+ecx*4+2440], ax
  002f8	8b 45 08	 mov	 eax, DWORD PTR _s$[ebp]
  002fb	8b 88 9c 16 00
	00		 mov	 ecx, DWORD PTR [eax+5788]
  00301	83 e9 01	 sub	 ecx, 1
  00304	8b 55 08	 mov	 edx, DWORD PTR _s$[ebp]
  00307	33 c0		 xor	 eax, eax
  00309	39 8a a0 16 00
	00		 cmp	 DWORD PTR [edx+5792], ecx
  0030f	0f 94 c0	 sete	 al
  00312	89 45 fc	 mov	 DWORD PTR _bflush$[ebp], eax

; 1625 : 
; 1626 :             /* Insert in hash table all strings up to the end of the match.
; 1627 :              * strstart-1 and strstart are already inserted. If there is not
; 1628 :              * enough lookahead, the last two strings are not inserted in
; 1629 :              * the hash table.
; 1630 :              */
; 1631 :             s->lookahead -= s->prev_length-1;

  00315	8b 4d 08	 mov	 ecx, DWORD PTR _s$[ebp]
  00318	8b 51 78	 mov	 edx, DWORD PTR [ecx+120]
  0031b	83 ea 01	 sub	 edx, 1
  0031e	8b 45 08	 mov	 eax, DWORD PTR _s$[ebp]
  00321	8b 48 74	 mov	 ecx, DWORD PTR [eax+116]
  00324	2b ca		 sub	 ecx, edx
  00326	8b 55 08	 mov	 edx, DWORD PTR _s$[ebp]
  00329	89 4a 74	 mov	 DWORD PTR [edx+116], ecx

; 1632 :             s->prev_length -= 2;

  0032c	8b 45 08	 mov	 eax, DWORD PTR _s$[ebp]
  0032f	8b 48 78	 mov	 ecx, DWORD PTR [eax+120]
  00332	83 e9 02	 sub	 ecx, 2
  00335	8b 55 08	 mov	 edx, DWORD PTR _s$[ebp]
  00338	89 4a 78	 mov	 DWORD PTR [edx+120], ecx
$LN13@deflate_sl:

; 1633 :             do {
; 1634 :                 if (++s->strstart <= max_insert) {

  0033b	8b 45 08	 mov	 eax, DWORD PTR _s$[ebp]
  0033e	8b 48 6c	 mov	 ecx, DWORD PTR [eax+108]
  00341	83 c1 01	 add	 ecx, 1
  00344	8b 55 08	 mov	 edx, DWORD PTR _s$[ebp]
  00347	89 4a 6c	 mov	 DWORD PTR [edx+108], ecx
  0034a	8b 45 08	 mov	 eax, DWORD PTR _s$[ebp]
  0034d	8b 48 6c	 mov	 ecx, DWORD PTR [eax+108]
  00350	3b 4d f4	 cmp	 ecx, DWORD PTR _max_insert$78099[ebp]
  00353	0f 87 83 00 00
	00		 ja	 $LN12@deflate_sl

; 1635 :                     INSERT_STRING(s, s->strstart, hash_head);

  00359	8b 55 08	 mov	 edx, DWORD PTR _s$[ebp]
  0035c	8b 45 08	 mov	 eax, DWORD PTR _s$[ebp]
  0035f	8b 52 48	 mov	 edx, DWORD PTR [edx+72]
  00362	8b 48 58	 mov	 ecx, DWORD PTR [eax+88]
  00365	d3 e2		 shl	 edx, cl
  00367	8b 45 08	 mov	 eax, DWORD PTR _s$[ebp]
  0036a	8b 48 6c	 mov	 ecx, DWORD PTR [eax+108]
  0036d	8b 45 08	 mov	 eax, DWORD PTR _s$[ebp]
  00370	8b 40 38	 mov	 eax, DWORD PTR [eax+56]
  00373	0f b6 4c 08 02	 movzx	 ecx, BYTE PTR [eax+ecx+2]
  00378	33 d1		 xor	 edx, ecx
  0037a	8b 45 08	 mov	 eax, DWORD PTR _s$[ebp]
  0037d	23 50 54	 and	 edx, DWORD PTR [eax+84]
  00380	8b 4d 08	 mov	 ecx, DWORD PTR _s$[ebp]
  00383	89 51 48	 mov	 DWORD PTR [ecx+72], edx
  00386	8b 55 08	 mov	 edx, DWORD PTR _s$[ebp]
  00389	8b 42 48	 mov	 eax, DWORD PTR [edx+72]
  0038c	8b 4d 08	 mov	 ecx, DWORD PTR _s$[ebp]
  0038f	8b 51 44	 mov	 edx, DWORD PTR [ecx+68]
  00392	8b 4d 08	 mov	 ecx, DWORD PTR _s$[ebp]
  00395	8b 75 08	 mov	 esi, DWORD PTR _s$[ebp]
  00398	8b 49 6c	 mov	 ecx, DWORD PTR [ecx+108]
  0039b	23 4e 34	 and	 ecx, DWORD PTR [esi+52]
  0039e	8b 75 08	 mov	 esi, DWORD PTR _s$[ebp]
  003a1	8b 76 40	 mov	 esi, DWORD PTR [esi+64]
  003a4	66 8b 14 42	 mov	 dx, WORD PTR [edx+eax*2]
  003a8	66 89 14 4e	 mov	 WORD PTR [esi+ecx*2], dx
  003ac	8b 45 08	 mov	 eax, DWORD PTR _s$[ebp]
  003af	8b 4d 08	 mov	 ecx, DWORD PTR _s$[ebp]
  003b2	8b 50 6c	 mov	 edx, DWORD PTR [eax+108]
  003b5	23 51 34	 and	 edx, DWORD PTR [ecx+52]
  003b8	8b 45 08	 mov	 eax, DWORD PTR _s$[ebp]
  003bb	8b 48 40	 mov	 ecx, DWORD PTR [eax+64]
  003be	0f b7 14 51	 movzx	 edx, WORD PTR [ecx+edx*2]
  003c2	89 55 f8	 mov	 DWORD PTR _hash_head$[ebp], edx
  003c5	8b 45 08	 mov	 eax, DWORD PTR _s$[ebp]
  003c8	8b 48 48	 mov	 ecx, DWORD PTR [eax+72]
  003cb	8b 55 08	 mov	 edx, DWORD PTR _s$[ebp]
  003ce	8b 42 44	 mov	 eax, DWORD PTR [edx+68]
  003d1	8b 55 08	 mov	 edx, DWORD PTR _s$[ebp]
  003d4	66 8b 52 6c	 mov	 dx, WORD PTR [edx+108]
  003d8	66 89 14 48	 mov	 WORD PTR [eax+ecx*2], dx
$LN12@deflate_sl:

; 1636 :                 }
; 1637 :             } while (--s->prev_length != 0);

  003dc	8b 45 08	 mov	 eax, DWORD PTR _s$[ebp]
  003df	8b 48 78	 mov	 ecx, DWORD PTR [eax+120]
  003e2	83 e9 01	 sub	 ecx, 1
  003e5	8b 55 08	 mov	 edx, DWORD PTR _s$[ebp]
  003e8	89 4a 78	 mov	 DWORD PTR [edx+120], ecx
  003eb	8b 45 08	 mov	 eax, DWORD PTR _s$[ebp]
  003ee	83 78 78 00	 cmp	 DWORD PTR [eax+120], 0
  003f2	0f 85 43 ff ff
	ff		 jne	 $LN13@deflate_sl

; 1638 :             s->match_available = 0;

  003f8	8b 4d 08	 mov	 ecx, DWORD PTR _s$[ebp]
  003fb	c7 41 68 00 00
	00 00		 mov	 DWORD PTR [ecx+104], 0

; 1639 :             s->match_length = MIN_MATCH-1;

  00402	8b 55 08	 mov	 edx, DWORD PTR _s$[ebp]
  00405	c7 42 60 02 00
	00 00		 mov	 DWORD PTR [edx+96], 2

; 1640 :             s->strstart++;

  0040c	8b 45 08	 mov	 eax, DWORD PTR _s$[ebp]
  0040f	8b 48 6c	 mov	 ecx, DWORD PTR [eax+108]
  00412	83 c1 01	 add	 ecx, 1
  00415	8b 55 08	 mov	 edx, DWORD PTR _s$[ebp]
  00418	89 4a 6c	 mov	 DWORD PTR [edx+108], ecx

; 1641 : 
; 1642 :             if (bflush) FLUSH_BLOCK(s, 0);

  0041b	83 7d fc 00	 cmp	 DWORD PTR _bflush$[ebp], 0
  0041f	74 6c		 je	 SHORT $LN9@deflate_sl
  00421	8b 45 08	 mov	 eax, DWORD PTR _s$[ebp]
  00424	83 78 5c 00	 cmp	 DWORD PTR [eax+92], 0
  00428	7c 11		 jl	 SHORT $LN31@deflate_sl
  0042a	8b 4d 08	 mov	 ecx, DWORD PTR _s$[ebp]
  0042d	8b 51 38	 mov	 edx, DWORD PTR [ecx+56]
  00430	8b 45 08	 mov	 eax, DWORD PTR _s$[ebp]
  00433	03 50 5c	 add	 edx, DWORD PTR [eax+92]
  00436	89 55 e0	 mov	 DWORD PTR tv328[ebp], edx
  00439	eb 07		 jmp	 SHORT $LN32@deflate_sl
$LN31@deflate_sl:
  0043b	c7 45 e0 00 00
	00 00		 mov	 DWORD PTR tv328[ebp], 0
$LN32@deflate_sl:
  00442	6a 00		 push	 0
  00444	8b 4d 08	 mov	 ecx, DWORD PTR _s$[ebp]
  00447	8b 55 08	 mov	 edx, DWORD PTR _s$[ebp]
  0044a	8b 41 6c	 mov	 eax, DWORD PTR [ecx+108]
  0044d	2b 42 5c	 sub	 eax, DWORD PTR [edx+92]
  00450	50		 push	 eax
  00451	8b 4d e0	 mov	 ecx, DWORD PTR tv328[ebp]
  00454	51		 push	 ecx
  00455	8b 55 08	 mov	 edx, DWORD PTR _s$[ebp]
  00458	52		 push	 edx
  00459	e8 00 00 00 00	 call	 __tr_flush_block
  0045e	83 c4 10	 add	 esp, 16			; 00000010H
  00461	8b 45 08	 mov	 eax, DWORD PTR _s$[ebp]
  00464	8b 4d 08	 mov	 ecx, DWORD PTR _s$[ebp]
  00467	8b 51 6c	 mov	 edx, DWORD PTR [ecx+108]
  0046a	89 50 5c	 mov	 DWORD PTR [eax+92], edx
  0046d	8b 45 08	 mov	 eax, DWORD PTR _s$[ebp]
  00470	8b 08		 mov	 ecx, DWORD PTR [eax]
  00472	51		 push	 ecx
  00473	e8 00 00 00 00	 call	 _flush_pending
  00478	83 c4 04	 add	 esp, 4
  0047b	8b 55 08	 mov	 edx, DWORD PTR _s$[ebp]
  0047e	8b 02		 mov	 eax, DWORD PTR [edx]
  00480	83 78 10 00	 cmp	 DWORD PTR [eax+16], 0
  00484	75 07		 jne	 SHORT $LN9@deflate_sl
  00486	33 c0		 xor	 eax, eax
  00488	e9 a1 02 00 00	 jmp	 $LN27@deflate_sl
$LN9@deflate_sl:
  0048d	e9 5e 01 00 00	 jmp	 $LN7@deflate_sl
$LN14@deflate_sl:

; 1643 : 
; 1644 :         } else if (s->match_available) {

  00492	8b 4d 08	 mov	 ecx, DWORD PTR _s$[ebp]
  00495	83 79 68 00	 cmp	 DWORD PTR [ecx+104], 0
  00499	0f 84 29 01 00
	00		 je	 $LN6@deflate_sl

; 1645 :             /* If there was no match at the previous position, output a
; 1646 :              * single literal. If there was a match but the current match
; 1647 :              * is longer, truncate the previous match to a single literal.
; 1648 :              */
; 1649 :             Tracevv((stderr,"%c", s->window[s->strstart-1]));
; 1650 :             _tr_tally_lit(s, s->window[s->strstart-1], bflush);

  0049f	8b 55 08	 mov	 edx, DWORD PTR _s$[ebp]
  004a2	8b 42 6c	 mov	 eax, DWORD PTR [edx+108]
  004a5	8b 4d 08	 mov	 ecx, DWORD PTR _s$[ebp]
  004a8	8b 51 38	 mov	 edx, DWORD PTR [ecx+56]
  004ab	8a 44 10 ff	 mov	 al, BYTE PTR [eax+edx-1]
  004af	88 45 eb	 mov	 BYTE PTR _cc$78116[ebp], al
  004b2	8b 4d 08	 mov	 ecx, DWORD PTR _s$[ebp]
  004b5	8b 91 a0 16 00
	00		 mov	 edx, DWORD PTR [ecx+5792]
  004bb	8b 45 08	 mov	 eax, DWORD PTR _s$[ebp]
  004be	8b 88 a4 16 00
	00		 mov	 ecx, DWORD PTR [eax+5796]
  004c4	33 c0		 xor	 eax, eax
  004c6	66 89 04 51	 mov	 WORD PTR [ecx+edx*2], ax
  004ca	8b 4d 08	 mov	 ecx, DWORD PTR _s$[ebp]
  004cd	8b 91 98 16 00
	00		 mov	 edx, DWORD PTR [ecx+5784]
  004d3	8b 45 08	 mov	 eax, DWORD PTR _s$[ebp]
  004d6	8b 88 a0 16 00
	00		 mov	 ecx, DWORD PTR [eax+5792]
  004dc	8a 45 eb	 mov	 al, BYTE PTR _cc$78116[ebp]
  004df	88 04 0a	 mov	 BYTE PTR [edx+ecx], al
  004e2	8b 4d 08	 mov	 ecx, DWORD PTR _s$[ebp]
  004e5	8b 91 a0 16 00
	00		 mov	 edx, DWORD PTR [ecx+5792]
  004eb	83 c2 01	 add	 edx, 1
  004ee	8b 45 08	 mov	 eax, DWORD PTR _s$[ebp]
  004f1	89 90 a0 16 00
	00		 mov	 DWORD PTR [eax+5792], edx
  004f7	0f b6 4d eb	 movzx	 ecx, BYTE PTR _cc$78116[ebp]
  004fb	8b 55 08	 mov	 edx, DWORD PTR _s$[ebp]
  004fe	66 8b 84 8a 94
	00 00 00	 mov	 ax, WORD PTR [edx+ecx*4+148]
  00506	66 83 c0 01	 add	 ax, 1
  0050a	0f b6 4d eb	 movzx	 ecx, BYTE PTR _cc$78116[ebp]
  0050e	8b 55 08	 mov	 edx, DWORD PTR _s$[ebp]
  00511	66 89 84 8a 94
	00 00 00	 mov	 WORD PTR [edx+ecx*4+148], ax
  00519	8b 45 08	 mov	 eax, DWORD PTR _s$[ebp]
  0051c	8b 88 9c 16 00
	00		 mov	 ecx, DWORD PTR [eax+5788]
  00522	83 e9 01	 sub	 ecx, 1
  00525	8b 55 08	 mov	 edx, DWORD PTR _s$[ebp]
  00528	33 c0		 xor	 eax, eax
  0052a	39 8a a0 16 00
	00		 cmp	 DWORD PTR [edx+5792], ecx
  00530	0f 94 c0	 sete	 al
  00533	89 45 fc	 mov	 DWORD PTR _bflush$[ebp], eax

; 1651 :             if (bflush) {

  00536	83 7d fc 00	 cmp	 DWORD PTR _bflush$[ebp], 0
  0053a	74 5a		 je	 SHORT $LN5@deflate_sl

; 1652 :                 FLUSH_BLOCK_ONLY(s, 0);

  0053c	8b 4d 08	 mov	 ecx, DWORD PTR _s$[ebp]
  0053f	83 79 5c 00	 cmp	 DWORD PTR [ecx+92], 0
  00543	7c 11		 jl	 SHORT $LN33@deflate_sl
  00545	8b 55 08	 mov	 edx, DWORD PTR _s$[ebp]
  00548	8b 42 38	 mov	 eax, DWORD PTR [edx+56]
  0054b	8b 4d 08	 mov	 ecx, DWORD PTR _s$[ebp]
  0054e	03 41 5c	 add	 eax, DWORD PTR [ecx+92]
  00551	89 45 dc	 mov	 DWORD PTR tv381[ebp], eax
  00554	eb 07		 jmp	 SHORT $LN34@deflate_sl
$LN33@deflate_sl:
  00556	c7 45 dc 00 00
	00 00		 mov	 DWORD PTR tv381[ebp], 0
$LN34@deflate_sl:
  0055d	6a 00		 push	 0
  0055f	8b 55 08	 mov	 edx, DWORD PTR _s$[ebp]
  00562	8b 45 08	 mov	 eax, DWORD PTR _s$[ebp]
  00565	8b 4a 6c	 mov	 ecx, DWORD PTR [edx+108]
  00568	2b 48 5c	 sub	 ecx, DWORD PTR [eax+92]
  0056b	51		 push	 ecx
  0056c	8b 55 dc	 mov	 edx, DWORD PTR tv381[ebp]
  0056f	52		 push	 edx
  00570	8b 45 08	 mov	 eax, DWORD PTR _s$[ebp]
  00573	50		 push	 eax
  00574	e8 00 00 00 00	 call	 __tr_flush_block
  00579	83 c4 10	 add	 esp, 16			; 00000010H
  0057c	8b 4d 08	 mov	 ecx, DWORD PTR _s$[ebp]
  0057f	8b 55 08	 mov	 edx, DWORD PTR _s$[ebp]
  00582	8b 42 6c	 mov	 eax, DWORD PTR [edx+108]
  00585	89 41 5c	 mov	 DWORD PTR [ecx+92], eax
  00588	8b 4d 08	 mov	 ecx, DWORD PTR _s$[ebp]
  0058b	8b 11		 mov	 edx, DWORD PTR [ecx]
  0058d	52		 push	 edx
  0058e	e8 00 00 00 00	 call	 _flush_pending
  00593	83 c4 04	 add	 esp, 4
$LN5@deflate_sl:

; 1653 :             }
; 1654 :             s->strstart++;

  00596	8b 45 08	 mov	 eax, DWORD PTR _s$[ebp]
  00599	8b 48 6c	 mov	 ecx, DWORD PTR [eax+108]
  0059c	83 c1 01	 add	 ecx, 1
  0059f	8b 55 08	 mov	 edx, DWORD PTR _s$[ebp]
  005a2	89 4a 6c	 mov	 DWORD PTR [edx+108], ecx

; 1655 :             s->lookahead--;

  005a5	8b 45 08	 mov	 eax, DWORD PTR _s$[ebp]
  005a8	8b 48 74	 mov	 ecx, DWORD PTR [eax+116]
  005ab	83 e9 01	 sub	 ecx, 1
  005ae	8b 55 08	 mov	 edx, DWORD PTR _s$[ebp]
  005b1	89 4a 74	 mov	 DWORD PTR [edx+116], ecx

; 1656 :             if (s->strm->avail_out == 0) return need_more;

  005b4	8b 45 08	 mov	 eax, DWORD PTR _s$[ebp]
  005b7	8b 08		 mov	 ecx, DWORD PTR [eax]
  005b9	83 79 10 00	 cmp	 DWORD PTR [ecx+16], 0
  005bd	75 07		 jne	 SHORT $LN4@deflate_sl
  005bf	33 c0		 xor	 eax, eax
  005c1	e9 68 01 00 00	 jmp	 $LN27@deflate_sl
$LN4@deflate_sl:

; 1657 :         } else {

  005c6	eb 28		 jmp	 SHORT $LN7@deflate_sl
$LN6@deflate_sl:

; 1658 :             /* There is no previous match to compare with, wait for
; 1659 :              * the next step to decide.
; 1660 :              */
; 1661 :             s->match_available = 1;

  005c8	8b 55 08	 mov	 edx, DWORD PTR _s$[ebp]
  005cb	c7 42 68 01 00
	00 00		 mov	 DWORD PTR [edx+104], 1

; 1662 :             s->strstart++;

  005d2	8b 45 08	 mov	 eax, DWORD PTR _s$[ebp]
  005d5	8b 48 6c	 mov	 ecx, DWORD PTR [eax+108]
  005d8	83 c1 01	 add	 ecx, 1
  005db	8b 55 08	 mov	 edx, DWORD PTR _s$[ebp]
  005de	89 4a 6c	 mov	 DWORD PTR [edx+108], ecx

; 1663 :             s->lookahead--;

  005e1	8b 45 08	 mov	 eax, DWORD PTR _s$[ebp]
  005e4	8b 48 74	 mov	 ecx, DWORD PTR [eax+116]
  005e7	83 e9 01	 sub	 ecx, 1
  005ea	8b 55 08	 mov	 edx, DWORD PTR _s$[ebp]
  005ed	89 4a 74	 mov	 DWORD PTR [edx+116], ecx
$LN7@deflate_sl:

; 1664 :         }
; 1665 :     }

  005f0	e9 19 fa ff ff	 jmp	 $LN26@deflate_sl
$LN25@deflate_sl:

; 1666 :     Assert (flush != Z_NO_FLUSH, "no flush?");
; 1667 :     if (s->match_available) {

  005f5	8b 45 08	 mov	 eax, DWORD PTR _s$[ebp]
  005f8	83 78 68 00	 cmp	 DWORD PTR [eax+104], 0
  005fc	0f 84 a1 00 00
	00		 je	 $LN2@deflate_sl

; 1668 :         Tracevv((stderr,"%c", s->window[s->strstart-1]));
; 1669 :         _tr_tally_lit(s, s->window[s->strstart-1], bflush);

  00602	8b 4d 08	 mov	 ecx, DWORD PTR _s$[ebp]
  00605	8b 51 6c	 mov	 edx, DWORD PTR [ecx+108]
  00608	8b 45 08	 mov	 eax, DWORD PTR _s$[ebp]
  0060b	8b 48 38	 mov	 ecx, DWORD PTR [eax+56]
  0060e	8a 54 0a ff	 mov	 dl, BYTE PTR [edx+ecx-1]
  00612	88 55 ea	 mov	 BYTE PTR _cc$78126[ebp], dl
  00615	8b 45 08	 mov	 eax, DWORD PTR _s$[ebp]
  00618	8b 88 a0 16 00
	00		 mov	 ecx, DWORD PTR [eax+5792]
  0061e	8b 55 08	 mov	 edx, DWORD PTR _s$[ebp]
  00621	8b 82 a4 16 00
	00		 mov	 eax, DWORD PTR [edx+5796]
  00627	33 d2		 xor	 edx, edx
  00629	66 89 14 48	 mov	 WORD PTR [eax+ecx*2], dx
  0062d	8b 45 08	 mov	 eax, DWORD PTR _s$[ebp]
  00630	8b 88 98 16 00
	00		 mov	 ecx, DWORD PTR [eax+5784]
  00636	8b 55 08	 mov	 edx, DWORD PTR _s$[ebp]
  00639	8b 82 a0 16 00
	00		 mov	 eax, DWORD PTR [edx+5792]
  0063f	8a 55 ea	 mov	 dl, BYTE PTR _cc$78126[ebp]
  00642	88 14 01	 mov	 BYTE PTR [ecx+eax], dl
  00645	8b 45 08	 mov	 eax, DWORD PTR _s$[ebp]
  00648	8b 88 a0 16 00
	00		 mov	 ecx, DWORD PTR [eax+5792]
  0064e	83 c1 01	 add	 ecx, 1
  00651	8b 55 08	 mov	 edx, DWORD PTR _s$[ebp]
  00654	89 8a a0 16 00
	00		 mov	 DWORD PTR [edx+5792], ecx
  0065a	0f b6 45 ea	 movzx	 eax, BYTE PTR _cc$78126[ebp]
  0065e	8b 4d 08	 mov	 ecx, DWORD PTR _s$[ebp]
  00661	66 8b 94 81 94
	00 00 00	 mov	 dx, WORD PTR [ecx+eax*4+148]
  00669	66 83 c2 01	 add	 dx, 1
  0066d	0f b6 45 ea	 movzx	 eax, BYTE PTR _cc$78126[ebp]
  00671	8b 4d 08	 mov	 ecx, DWORD PTR _s$[ebp]
  00674	66 89 94 81 94
	00 00 00	 mov	 WORD PTR [ecx+eax*4+148], dx
  0067c	8b 55 08	 mov	 edx, DWORD PTR _s$[ebp]
  0067f	8b 82 9c 16 00
	00		 mov	 eax, DWORD PTR [edx+5788]
  00685	83 e8 01	 sub	 eax, 1
  00688	8b 4d 08	 mov	 ecx, DWORD PTR _s$[ebp]
  0068b	33 d2		 xor	 edx, edx
  0068d	39 81 a0 16 00
	00		 cmp	 DWORD PTR [ecx+5792], eax
  00693	0f 94 c2	 sete	 dl
  00696	89 55 fc	 mov	 DWORD PTR _bflush$[ebp], edx

; 1670 :         s->match_available = 0;

  00699	8b 45 08	 mov	 eax, DWORD PTR _s$[ebp]
  0069c	c7 40 68 00 00
	00 00		 mov	 DWORD PTR [eax+104], 0
$LN2@deflate_sl:

; 1671 :     }
; 1672 :     FLUSH_BLOCK(s, flush == Z_FINISH);

  006a3	8b 4d 08	 mov	 ecx, DWORD PTR _s$[ebp]
  006a6	83 79 5c 00	 cmp	 DWORD PTR [ecx+92], 0
  006aa	7c 11		 jl	 SHORT $LN35@deflate_sl
  006ac	8b 55 08	 mov	 edx, DWORD PTR _s$[ebp]
  006af	8b 42 38	 mov	 eax, DWORD PTR [edx+56]
  006b2	8b 4d 08	 mov	 ecx, DWORD PTR _s$[ebp]
  006b5	03 41 5c	 add	 eax, DWORD PTR [ecx+92]
  006b8	89 45 d8	 mov	 DWORD PTR tv453[ebp], eax
  006bb	eb 07		 jmp	 SHORT $LN36@deflate_sl
$LN35@deflate_sl:
  006bd	c7 45 d8 00 00
	00 00		 mov	 DWORD PTR tv453[ebp], 0
$LN36@deflate_sl:
  006c4	33 d2		 xor	 edx, edx
  006c6	83 7d 0c 04	 cmp	 DWORD PTR _flush$[ebp], 4
  006ca	0f 94 c2	 sete	 dl
  006cd	52		 push	 edx
  006ce	8b 45 08	 mov	 eax, DWORD PTR _s$[ebp]
  006d1	8b 4d 08	 mov	 ecx, DWORD PTR _s$[ebp]
  006d4	8b 50 6c	 mov	 edx, DWORD PTR [eax+108]
  006d7	2b 51 5c	 sub	 edx, DWORD PTR [ecx+92]
  006da	52		 push	 edx
  006db	8b 45 d8	 mov	 eax, DWORD PTR tv453[ebp]
  006de	50		 push	 eax
  006df	8b 4d 08	 mov	 ecx, DWORD PTR _s$[ebp]
  006e2	51		 push	 ecx
  006e3	e8 00 00 00 00	 call	 __tr_flush_block
  006e8	83 c4 10	 add	 esp, 16			; 00000010H
  006eb	8b 55 08	 mov	 edx, DWORD PTR _s$[ebp]
  006ee	8b 45 08	 mov	 eax, DWORD PTR _s$[ebp]
  006f1	8b 48 6c	 mov	 ecx, DWORD PTR [eax+108]
  006f4	89 4a 5c	 mov	 DWORD PTR [edx+92], ecx
  006f7	8b 55 08	 mov	 edx, DWORD PTR _s$[ebp]
  006fa	8b 02		 mov	 eax, DWORD PTR [edx]
  006fc	50		 push	 eax
  006fd	e8 00 00 00 00	 call	 _flush_pending
  00702	83 c4 04	 add	 esp, 4
  00705	8b 4d 08	 mov	 ecx, DWORD PTR _s$[ebp]
  00708	8b 11		 mov	 edx, DWORD PTR [ecx]
  0070a	83 7a 10 00	 cmp	 DWORD PTR [edx+16], 0
  0070e	75 11		 jne	 SHORT $LN1@deflate_sl
  00710	33 c0		 xor	 eax, eax
  00712	83 7d 0c 04	 cmp	 DWORD PTR _flush$[ebp], 4
  00716	0f 95 c0	 setne	 al
  00719	83 e8 01	 sub	 eax, 1
  0071c	83 e0 02	 and	 eax, 2
  0071f	eb 0d		 jmp	 SHORT $LN27@deflate_sl
$LN1@deflate_sl:

; 1673 :     return flush == Z_FINISH ? finish_done : block_done;

  00721	33 c0		 xor	 eax, eax
  00723	83 7d 0c 04	 cmp	 DWORD PTR _flush$[ebp], 4
  00727	0f 94 c0	 sete	 al
  0072a	8d 44 00 01	 lea	 eax, DWORD PTR [eax+eax+1]
$LN27@deflate_sl:

; 1674 : }

  0072e	5e		 pop	 esi
  0072f	8b e5		 mov	 esp, ebp
  00731	5d		 pop	 ebp
  00732	c3		 ret	 0
_deflate_slow ENDP
; Function compile flags: /Odtp
_TEXT	ENDS
;	COMDAT _deflate_fast
_TEXT	SEGMENT
tv384 = -32						; size = 4
tv364 = -28						; size = 4
tv217 = -24						; size = 4
_cc$78064 = -17						; size = 1
_dist$78056 = -16					; size = 2
_len$78055 = -9						; size = 1
_hash_head$ = -8					; size = 4
_bflush$ = -4						; size = 4
_s$ = 8							; size = 4
_flush$ = 12						; size = 4
_deflate_fast PROC					; COMDAT

; 1451 : {

  00000	55		 push	 ebp
  00001	8b ec		 mov	 ebp, esp
  00003	83 ec 20	 sub	 esp, 32			; 00000020H
  00006	56		 push	 esi

; 1452 :     IPos hash_head = NIL; /* head of the hash chain */

  00007	c7 45 f8 00 00
	00 00		 mov	 DWORD PTR _hash_head$[ebp], 0
$LN20@deflate_fa:

; 1453 :     int bflush;           /* set if current block must be flushed */
; 1454 : 
; 1455 :     for (;;) {
; 1456 :         /* Make sure that we always have enough lookahead, except
; 1457 :          * at the end of the input file. We need MAX_MATCH bytes
; 1458 :          * for the next match, plus MIN_MATCH bytes to insert the
; 1459 :          * string following the next match.
; 1460 :          */
; 1461 :         if (s->lookahead < MIN_LOOKAHEAD) {

  0000e	8b 45 08	 mov	 eax, DWORD PTR _s$[ebp]
  00011	81 78 74 06 01
	00 00		 cmp	 DWORD PTR [eax+116], 262 ; 00000106H
  00018	73 33		 jae	 SHORT $LN18@deflate_fa

; 1462 :             fill_window(s);

  0001a	8b 4d 08	 mov	 ecx, DWORD PTR _s$[ebp]
  0001d	51		 push	 ecx
  0001e	e8 00 00 00 00	 call	 _fill_window
  00023	83 c4 04	 add	 esp, 4

; 1463 :             if (s->lookahead < MIN_LOOKAHEAD && flush == Z_NO_FLUSH) {

  00026	8b 55 08	 mov	 edx, DWORD PTR _s$[ebp]
  00029	81 7a 74 06 01
	00 00		 cmp	 DWORD PTR [edx+116], 262 ; 00000106H
  00030	73 0d		 jae	 SHORT $LN17@deflate_fa
  00032	83 7d 0c 00	 cmp	 DWORD PTR _flush$[ebp], 0
  00036	75 07		 jne	 SHORT $LN17@deflate_fa

; 1464 :                 return need_more;

  00038	33 c0		 xor	 eax, eax
  0003a	e9 4d 05 00 00	 jmp	 $LN21@deflate_fa
$LN17@deflate_fa:

; 1465 :             }
; 1466 :             if (s->lookahead == 0) break; /* flush the current block */

  0003f	8b 45 08	 mov	 eax, DWORD PTR _s$[ebp]
  00042	83 78 74 00	 cmp	 DWORD PTR [eax+116], 0
  00046	75 05		 jne	 SHORT $LN18@deflate_fa
  00048	e9 b4 04 00 00	 jmp	 $LN19@deflate_fa
$LN18@deflate_fa:

; 1467 :         }
; 1468 : 
; 1469 :         /* Insert the string window[strstart .. strstart+2] in the
; 1470 :          * dictionary, and set hash_head to the head of the hash chain:
; 1471 :          */
; 1472 :         if (s->lookahead >= MIN_MATCH) {

  0004d	8b 4d 08	 mov	 ecx, DWORD PTR _s$[ebp]
  00050	83 79 74 03	 cmp	 DWORD PTR [ecx+116], 3
  00054	0f 82 83 00 00
	00		 jb	 $LN15@deflate_fa

; 1473 :             INSERT_STRING(s, s->strstart, hash_head);

  0005a	8b 55 08	 mov	 edx, DWORD PTR _s$[ebp]
  0005d	8b 45 08	 mov	 eax, DWORD PTR _s$[ebp]
  00060	8b 52 48	 mov	 edx, DWORD PTR [edx+72]
  00063	8b 48 58	 mov	 ecx, DWORD PTR [eax+88]
  00066	d3 e2		 shl	 edx, cl
  00068	8b 45 08	 mov	 eax, DWORD PTR _s$[ebp]
  0006b	8b 48 6c	 mov	 ecx, DWORD PTR [eax+108]
  0006e	8b 45 08	 mov	 eax, DWORD PTR _s$[ebp]
  00071	8b 40 38	 mov	 eax, DWORD PTR [eax+56]
  00074	0f b6 4c 08 02	 movzx	 ecx, BYTE PTR [eax+ecx+2]
  00079	33 d1		 xor	 edx, ecx
  0007b	8b 45 08	 mov	 eax, DWORD PTR _s$[ebp]
  0007e	23 50 54	 and	 edx, DWORD PTR [eax+84]
  00081	8b 4d 08	 mov	 ecx, DWORD PTR _s$[ebp]
  00084	89 51 48	 mov	 DWORD PTR [ecx+72], edx
  00087	8b 55 08	 mov	 edx, DWORD PTR _s$[ebp]
  0008a	8b 42 48	 mov	 eax, DWORD PTR [edx+72]
  0008d	8b 4d 08	 mov	 ecx, DWORD PTR _s$[ebp]
  00090	8b 51 44	 mov	 edx, DWORD PTR [ecx+68]
  00093	8b 4d 08	 mov	 ecx, DWORD PTR _s$[ebp]
  00096	8b 75 08	 mov	 esi, DWORD PTR _s$[ebp]
  00099	8b 49 6c	 mov	 ecx, DWORD PTR [ecx+108]
  0009c	23 4e 34	 and	 ecx, DWORD PTR [esi+52]
  0009f	8b 75 08	 mov	 esi, DWORD PTR _s$[ebp]
  000a2	8b 76 40	 mov	 esi, DWORD PTR [esi+64]
  000a5	66 8b 14 42	 mov	 dx, WORD PTR [edx+eax*2]
  000a9	66 89 14 4e	 mov	 WORD PTR [esi+ecx*2], dx
  000ad	8b 45 08	 mov	 eax, DWORD PTR _s$[ebp]
  000b0	8b 4d 08	 mov	 ecx, DWORD PTR _s$[ebp]
  000b3	8b 50 6c	 mov	 edx, DWORD PTR [eax+108]
  000b6	23 51 34	 and	 edx, DWORD PTR [ecx+52]
  000b9	8b 45 08	 mov	 eax, DWORD PTR _s$[ebp]
  000bc	8b 48 40	 mov	 ecx, DWORD PTR [eax+64]
  000bf	0f b7 14 51	 movzx	 edx, WORD PTR [ecx+edx*2]
  000c3	89 55 f8	 mov	 DWORD PTR _hash_head$[ebp], edx
  000c6	8b 45 08	 mov	 eax, DWORD PTR _s$[ebp]
  000c9	8b 48 48	 mov	 ecx, DWORD PTR [eax+72]
  000cc	8b 55 08	 mov	 edx, DWORD PTR _s$[ebp]
  000cf	8b 42 44	 mov	 eax, DWORD PTR [edx+68]
  000d2	8b 55 08	 mov	 edx, DWORD PTR _s$[ebp]
  000d5	66 8b 52 6c	 mov	 dx, WORD PTR [edx+108]
  000d9	66 89 14 48	 mov	 WORD PTR [eax+ecx*2], dx
$LN15@deflate_fa:

; 1474 :         }
; 1475 : 
; 1476 :         /* Find the longest match, discarding those <= prev_length.
; 1477 :          * At this point we have always match_length < MIN_MATCH
; 1478 :          */
; 1479 :         if (hash_head != NIL && s->strstart - hash_head <= MAX_DIST(s)) {

  000dd	83 7d f8 00	 cmp	 DWORD PTR _hash_head$[ebp], 0
  000e1	74 78		 je	 SHORT $LN14@deflate_fa
  000e3	8b 45 08	 mov	 eax, DWORD PTR _s$[ebp]
  000e6	8b 48 6c	 mov	 ecx, DWORD PTR [eax+108]
  000e9	2b 4d f8	 sub	 ecx, DWORD PTR _hash_head$[ebp]
  000ec	8b 55 08	 mov	 edx, DWORD PTR _s$[ebp]
  000ef	8b 42 2c	 mov	 eax, DWORD PTR [edx+44]
  000f2	2d 06 01 00 00	 sub	 eax, 262		; 00000106H
  000f7	3b c8		 cmp	 ecx, eax
  000f9	77 60		 ja	 SHORT $LN14@deflate_fa

; 1480 :             /* To simplify the code, we prevent matches with the string
; 1481 :              * of window index 0 (in particular we have to avoid a match
; 1482 :              * of the string with itself at the start of the input file).
; 1483 :              */
; 1484 : #ifdef FASTEST
; 1485 :             if ((s->strategy != Z_HUFFMAN_ONLY && s->strategy != Z_RLE) ||
; 1486 :                 (s->strategy == Z_RLE && s->strstart - hash_head == 1)) {
; 1487 :                 s->match_length = longest_match_fast (s, hash_head);
; 1488 :             }
; 1489 : #else
; 1490 :             if (s->strategy != Z_HUFFMAN_ONLY && s->strategy != Z_RLE) {

  000fb	8b 4d 08	 mov	 ecx, DWORD PTR _s$[ebp]
  000fe	83 b9 88 00 00
	00 02		 cmp	 DWORD PTR [ecx+136], 2
  00105	74 24		 je	 SHORT $LN13@deflate_fa
  00107	8b 55 08	 mov	 edx, DWORD PTR _s$[ebp]
  0010a	83 ba 88 00 00
	00 03		 cmp	 DWORD PTR [edx+136], 3
  00111	74 18		 je	 SHORT $LN13@deflate_fa

; 1491 :                 s->match_length = longest_match (s, hash_head);

  00113	8b 45 f8	 mov	 eax, DWORD PTR _hash_head$[ebp]
  00116	50		 push	 eax
  00117	8b 4d 08	 mov	 ecx, DWORD PTR _s$[ebp]
  0011a	51		 push	 ecx
  0011b	e8 00 00 00 00	 call	 _longest_match
  00120	83 c4 08	 add	 esp, 8
  00123	8b 55 08	 mov	 edx, DWORD PTR _s$[ebp]
  00126	89 42 60	 mov	 DWORD PTR [edx+96], eax
  00129	eb 30		 jmp	 SHORT $LN14@deflate_fa
$LN13@deflate_fa:

; 1492 :             } else if (s->strategy == Z_RLE && s->strstart - hash_head == 1) {

  0012b	8b 45 08	 mov	 eax, DWORD PTR _s$[ebp]
  0012e	83 b8 88 00 00
	00 03		 cmp	 DWORD PTR [eax+136], 3
  00135	75 24		 jne	 SHORT $LN14@deflate_fa
  00137	8b 4d 08	 mov	 ecx, DWORD PTR _s$[ebp]
  0013a	8b 51 6c	 mov	 edx, DWORD PTR [ecx+108]
  0013d	2b 55 f8	 sub	 edx, DWORD PTR _hash_head$[ebp]
  00140	83 fa 01	 cmp	 edx, 1
  00143	75 16		 jne	 SHORT $LN14@deflate_fa

; 1493 :                 s->match_length = longest_match_fast (s, hash_head);

  00145	8b 45 f8	 mov	 eax, DWORD PTR _hash_head$[ebp]
  00148	50		 push	 eax
  00149	8b 4d 08	 mov	 ecx, DWORD PTR _s$[ebp]
  0014c	51		 push	 ecx
  0014d	e8 00 00 00 00	 call	 _longest_match_fast
  00152	83 c4 08	 add	 esp, 8
  00155	8b 55 08	 mov	 edx, DWORD PTR _s$[ebp]
  00158	89 42 60	 mov	 DWORD PTR [edx+96], eax
$LN14@deflate_fa:

; 1494 :             }
; 1495 : #endif
; 1496 :             /* longest_match() or longest_match_fast() sets match_start */
; 1497 :         }
; 1498 :         if (s->match_length >= MIN_MATCH) {

  0015b	8b 45 08	 mov	 eax, DWORD PTR _s$[ebp]
  0015e	83 78 60 03	 cmp	 DWORD PTR [eax+96], 3
  00162	0f 82 6e 02 00
	00		 jb	 $LN10@deflate_fa

; 1499 :             check_match(s, s->strstart, s->match_start, s->match_length);
; 1500 : 
; 1501 :             _tr_tally_dist(s, s->strstart - s->match_start,
; 1502 :                            s->match_length - MIN_MATCH, bflush);

  00168	8b 4d 08	 mov	 ecx, DWORD PTR _s$[ebp]
  0016b	8b 51 60	 mov	 edx, DWORD PTR [ecx+96]
  0016e	83 ea 03	 sub	 edx, 3
  00171	88 55 f7	 mov	 BYTE PTR _len$78055[ebp], dl
  00174	8b 45 08	 mov	 eax, DWORD PTR _s$[ebp]
  00177	8b 4d 08	 mov	 ecx, DWORD PTR _s$[ebp]
  0017a	8b 50 6c	 mov	 edx, DWORD PTR [eax+108]
  0017d	2b 51 70	 sub	 edx, DWORD PTR [ecx+112]
  00180	66 89 55 f0	 mov	 WORD PTR _dist$78056[ebp], dx
  00184	8b 45 08	 mov	 eax, DWORD PTR _s$[ebp]
  00187	8b 88 a0 16 00
	00		 mov	 ecx, DWORD PTR [eax+5792]
  0018d	8b 55 08	 mov	 edx, DWORD PTR _s$[ebp]
  00190	8b 82 a4 16 00
	00		 mov	 eax, DWORD PTR [edx+5796]
  00196	66 8b 55 f0	 mov	 dx, WORD PTR _dist$78056[ebp]
  0019a	66 89 14 48	 mov	 WORD PTR [eax+ecx*2], dx
  0019e	8b 45 08	 mov	 eax, DWORD PTR _s$[ebp]
  001a1	8b 88 98 16 00
	00		 mov	 ecx, DWORD PTR [eax+5784]
  001a7	8b 55 08	 mov	 edx, DWORD PTR _s$[ebp]
  001aa	8b 82 a0 16 00
	00		 mov	 eax, DWORD PTR [edx+5792]
  001b0	8a 55 f7	 mov	 dl, BYTE PTR _len$78055[ebp]
  001b3	88 14 01	 mov	 BYTE PTR [ecx+eax], dl
  001b6	8b 45 08	 mov	 eax, DWORD PTR _s$[ebp]
  001b9	8b 88 a0 16 00
	00		 mov	 ecx, DWORD PTR [eax+5792]
  001bf	83 c1 01	 add	 ecx, 1
  001c2	8b 55 08	 mov	 edx, DWORD PTR _s$[ebp]
  001c5	89 8a a0 16 00
	00		 mov	 DWORD PTR [edx+5792], ecx
  001cb	66 8b 45 f0	 mov	 ax, WORD PTR _dist$78056[ebp]
  001cf	66 83 e8 01	 sub	 ax, 1
  001d3	66 89 45 f0	 mov	 WORD PTR _dist$78056[ebp], ax
  001d7	0f b6 4d f7	 movzx	 ecx, BYTE PTR _len$78055[ebp]
  001db	0f b6 91 00 00
	00 00		 movzx	 edx, BYTE PTR __length_code[ecx]
  001e2	8b 45 08	 mov	 eax, DWORD PTR _s$[ebp]
  001e5	66 8b 8c 90 98
	04 00 00	 mov	 cx, WORD PTR [eax+edx*4+1176]
  001ed	66 83 c1 01	 add	 cx, 1
  001f1	0f b6 55 f7	 movzx	 edx, BYTE PTR _len$78055[ebp]
  001f5	0f b6 82 00 00
	00 00		 movzx	 eax, BYTE PTR __length_code[edx]
  001fc	8b 55 08	 mov	 edx, DWORD PTR _s$[ebp]
  001ff	66 89 8c 82 98
	04 00 00	 mov	 WORD PTR [edx+eax*4+1176], cx
  00207	0f b7 45 f0	 movzx	 eax, WORD PTR _dist$78056[ebp]
  0020b	3d 00 01 00 00	 cmp	 eax, 256		; 00000100H
  00210	7d 10		 jge	 SHORT $LN23@deflate_fa
  00212	0f b7 4d f0	 movzx	 ecx, WORD PTR _dist$78056[ebp]
  00216	0f b6 91 00 00
	00 00		 movzx	 edx, BYTE PTR __dist_code[ecx]
  0021d	89 55 e8	 mov	 DWORD PTR tv217[ebp], edx
  00220	eb 11		 jmp	 SHORT $LN24@deflate_fa
$LN23@deflate_fa:
  00222	0f b7 45 f0	 movzx	 eax, WORD PTR _dist$78056[ebp]
  00226	c1 f8 07	 sar	 eax, 7
  00229	0f b6 88 00 01
	00 00		 movzx	 ecx, BYTE PTR __dist_code[eax+256]
  00230	89 4d e8	 mov	 DWORD PTR tv217[ebp], ecx
$LN24@deflate_fa:
  00233	8b 55 e8	 mov	 edx, DWORD PTR tv217[ebp]
  00236	8b 45 08	 mov	 eax, DWORD PTR _s$[ebp]
  00239	66 8b 8c 90 88
	09 00 00	 mov	 cx, WORD PTR [eax+edx*4+2440]
  00241	66 83 c1 01	 add	 cx, 1
  00245	8b 55 e8	 mov	 edx, DWORD PTR tv217[ebp]
  00248	8b 45 08	 mov	 eax, DWORD PTR _s$[ebp]
  0024b	66 89 8c 90 88
	09 00 00	 mov	 WORD PTR [eax+edx*4+2440], cx
  00253	8b 4d 08	 mov	 ecx, DWORD PTR _s$[ebp]
  00256	8b 91 9c 16 00
	00		 mov	 edx, DWORD PTR [ecx+5788]
  0025c	83 ea 01	 sub	 edx, 1
  0025f	8b 45 08	 mov	 eax, DWORD PTR _s$[ebp]
  00262	33 c9		 xor	 ecx, ecx
  00264	39 90 a0 16 00
	00		 cmp	 DWORD PTR [eax+5792], edx
  0026a	0f 94 c1	 sete	 cl
  0026d	89 4d fc	 mov	 DWORD PTR _bflush$[ebp], ecx

; 1503 : 
; 1504 :             s->lookahead -= s->match_length;

  00270	8b 55 08	 mov	 edx, DWORD PTR _s$[ebp]
  00273	8b 45 08	 mov	 eax, DWORD PTR _s$[ebp]
  00276	8b 4a 74	 mov	 ecx, DWORD PTR [edx+116]
  00279	2b 48 60	 sub	 ecx, DWORD PTR [eax+96]
  0027c	8b 55 08	 mov	 edx, DWORD PTR _s$[ebp]
  0027f	89 4a 74	 mov	 DWORD PTR [edx+116], ecx

; 1505 : 
; 1506 :             /* Insert new strings in the hash table only if the match length
; 1507 :              * is not too large. This saves time but degrades compression.
; 1508 :              */
; 1509 : #ifndef FASTEST
; 1510 :             if (s->match_length <= s->max_insert_length &&
; 1511 :                 s->lookahead >= MIN_MATCH) {

  00282	8b 45 08	 mov	 eax, DWORD PTR _s$[ebp]
  00285	8b 4d 08	 mov	 ecx, DWORD PTR _s$[ebp]
  00288	8b 50 60	 mov	 edx, DWORD PTR [eax+96]
  0028b	3b 91 80 00 00
	00		 cmp	 edx, DWORD PTR [ecx+128]
  00291	0f 87 db 00 00
	00		 ja	 $LN9@deflate_fa
  00297	8b 45 08	 mov	 eax, DWORD PTR _s$[ebp]
  0029a	83 78 74 03	 cmp	 DWORD PTR [eax+116], 3
  0029e	0f 82 ce 00 00
	00		 jb	 $LN9@deflate_fa

; 1512 :                 s->match_length--; /* string at strstart already in table */

  002a4	8b 4d 08	 mov	 ecx, DWORD PTR _s$[ebp]
  002a7	8b 51 60	 mov	 edx, DWORD PTR [ecx+96]
  002aa	83 ea 01	 sub	 edx, 1
  002ad	8b 45 08	 mov	 eax, DWORD PTR _s$[ebp]
  002b0	89 50 60	 mov	 DWORD PTR [eax+96], edx
$LN8@deflate_fa:

; 1513 :                 do {
; 1514 :                     s->strstart++;

  002b3	8b 4d 08	 mov	 ecx, DWORD PTR _s$[ebp]
  002b6	8b 51 6c	 mov	 edx, DWORD PTR [ecx+108]
  002b9	83 c2 01	 add	 edx, 1
  002bc	8b 45 08	 mov	 eax, DWORD PTR _s$[ebp]
  002bf	89 50 6c	 mov	 DWORD PTR [eax+108], edx

; 1515 :                     INSERT_STRING(s, s->strstart, hash_head);

  002c2	8b 4d 08	 mov	 ecx, DWORD PTR _s$[ebp]
  002c5	8b 55 08	 mov	 edx, DWORD PTR _s$[ebp]
  002c8	8b 41 48	 mov	 eax, DWORD PTR [ecx+72]
  002cb	8b 4a 58	 mov	 ecx, DWORD PTR [edx+88]
  002ce	d3 e0		 shl	 eax, cl
  002d0	8b 4d 08	 mov	 ecx, DWORD PTR _s$[ebp]
  002d3	8b 51 6c	 mov	 edx, DWORD PTR [ecx+108]
  002d6	8b 4d 08	 mov	 ecx, DWORD PTR _s$[ebp]
  002d9	8b 49 38	 mov	 ecx, DWORD PTR [ecx+56]
  002dc	0f b6 54 11 02	 movzx	 edx, BYTE PTR [ecx+edx+2]
  002e1	33 c2		 xor	 eax, edx
  002e3	8b 4d 08	 mov	 ecx, DWORD PTR _s$[ebp]
  002e6	23 41 54	 and	 eax, DWORD PTR [ecx+84]
  002e9	8b 55 08	 mov	 edx, DWORD PTR _s$[ebp]
  002ec	89 42 48	 mov	 DWORD PTR [edx+72], eax
  002ef	8b 45 08	 mov	 eax, DWORD PTR _s$[ebp]
  002f2	8b 48 48	 mov	 ecx, DWORD PTR [eax+72]
  002f5	8b 55 08	 mov	 edx, DWORD PTR _s$[ebp]
  002f8	8b 42 44	 mov	 eax, DWORD PTR [edx+68]
  002fb	8b 55 08	 mov	 edx, DWORD PTR _s$[ebp]
  002fe	8b 75 08	 mov	 esi, DWORD PTR _s$[ebp]
  00301	8b 52 6c	 mov	 edx, DWORD PTR [edx+108]
  00304	23 56 34	 and	 edx, DWORD PTR [esi+52]
  00307	8b 75 08	 mov	 esi, DWORD PTR _s$[ebp]
  0030a	8b 76 40	 mov	 esi, DWORD PTR [esi+64]
  0030d	66 8b 04 48	 mov	 ax, WORD PTR [eax+ecx*2]
  00311	66 89 04 56	 mov	 WORD PTR [esi+edx*2], ax
  00315	8b 4d 08	 mov	 ecx, DWORD PTR _s$[ebp]
  00318	8b 55 08	 mov	 edx, DWORD PTR _s$[ebp]
  0031b	8b 41 6c	 mov	 eax, DWORD PTR [ecx+108]
  0031e	23 42 34	 and	 eax, DWORD PTR [edx+52]
  00321	8b 4d 08	 mov	 ecx, DWORD PTR _s$[ebp]
  00324	8b 51 40	 mov	 edx, DWORD PTR [ecx+64]
  00327	0f b7 04 42	 movzx	 eax, WORD PTR [edx+eax*2]
  0032b	89 45 f8	 mov	 DWORD PTR _hash_head$[ebp], eax
  0032e	8b 4d 08	 mov	 ecx, DWORD PTR _s$[ebp]
  00331	8b 51 48	 mov	 edx, DWORD PTR [ecx+72]
  00334	8b 45 08	 mov	 eax, DWORD PTR _s$[ebp]
  00337	8b 48 44	 mov	 ecx, DWORD PTR [eax+68]
  0033a	8b 45 08	 mov	 eax, DWORD PTR _s$[ebp]
  0033d	66 8b 40 6c	 mov	 ax, WORD PTR [eax+108]
  00341	66 89 04 51	 mov	 WORD PTR [ecx+edx*2], ax

; 1516 :                     /* strstart never exceeds WSIZE-MAX_MATCH, so there are
; 1517 :                      * always MIN_MATCH bytes ahead.
; 1518 :                      */
; 1519 :                 } while (--s->match_length != 0);

  00345	8b 4d 08	 mov	 ecx, DWORD PTR _s$[ebp]
  00348	8b 51 60	 mov	 edx, DWORD PTR [ecx+96]
  0034b	83 ea 01	 sub	 edx, 1
  0034e	8b 45 08	 mov	 eax, DWORD PTR _s$[ebp]
  00351	89 50 60	 mov	 DWORD PTR [eax+96], edx
  00354	8b 4d 08	 mov	 ecx, DWORD PTR _s$[ebp]
  00357	83 79 60 00	 cmp	 DWORD PTR [ecx+96], 0
  0035b	0f 85 52 ff ff
	ff		 jne	 $LN8@deflate_fa

; 1520 :                 s->strstart++;

  00361	8b 55 08	 mov	 edx, DWORD PTR _s$[ebp]
  00364	8b 42 6c	 mov	 eax, DWORD PTR [edx+108]
  00367	83 c0 01	 add	 eax, 1
  0036a	8b 4d 08	 mov	 ecx, DWORD PTR _s$[ebp]
  0036d	89 41 6c	 mov	 DWORD PTR [ecx+108], eax

; 1521 :             } else

  00370	eb 5f		 jmp	 SHORT $LN5@deflate_fa
$LN9@deflate_fa:

; 1522 : #endif
; 1523 :             {
; 1524 :                 s->strstart += s->match_length;

  00372	8b 55 08	 mov	 edx, DWORD PTR _s$[ebp]
  00375	8b 42 6c	 mov	 eax, DWORD PTR [edx+108]
  00378	8b 4d 08	 mov	 ecx, DWORD PTR _s$[ebp]
  0037b	03 41 60	 add	 eax, DWORD PTR [ecx+96]
  0037e	8b 55 08	 mov	 edx, DWORD PTR _s$[ebp]
  00381	89 42 6c	 mov	 DWORD PTR [edx+108], eax

; 1525 :                 s->match_length = 0;

  00384	8b 45 08	 mov	 eax, DWORD PTR _s$[ebp]
  00387	c7 40 60 00 00
	00 00		 mov	 DWORD PTR [eax+96], 0

; 1526 :                 s->ins_h = s->window[s->strstart];

  0038e	8b 4d 08	 mov	 ecx, DWORD PTR _s$[ebp]
  00391	8b 51 38	 mov	 edx, DWORD PTR [ecx+56]
  00394	8b 45 08	 mov	 eax, DWORD PTR _s$[ebp]
  00397	8b 48 6c	 mov	 ecx, DWORD PTR [eax+108]
  0039a	0f b6 14 0a	 movzx	 edx, BYTE PTR [edx+ecx]
  0039e	8b 45 08	 mov	 eax, DWORD PTR _s$[ebp]
  003a1	89 50 48	 mov	 DWORD PTR [eax+72], edx

; 1527 :                 UPDATE_HASH(s, s->ins_h, s->window[s->strstart+1]);

  003a4	8b 4d 08	 mov	 ecx, DWORD PTR _s$[ebp]
  003a7	8b 55 08	 mov	 edx, DWORD PTR _s$[ebp]
  003aa	8b 41 48	 mov	 eax, DWORD PTR [ecx+72]
  003ad	8b 4a 58	 mov	 ecx, DWORD PTR [edx+88]
  003b0	d3 e0		 shl	 eax, cl
  003b2	8b 4d 08	 mov	 ecx, DWORD PTR _s$[ebp]
  003b5	8b 51 6c	 mov	 edx, DWORD PTR [ecx+108]
  003b8	8b 4d 08	 mov	 ecx, DWORD PTR _s$[ebp]
  003bb	8b 49 38	 mov	 ecx, DWORD PTR [ecx+56]
  003be	0f b6 54 11 01	 movzx	 edx, BYTE PTR [ecx+edx+1]
  003c3	33 c2		 xor	 eax, edx
  003c5	8b 4d 08	 mov	 ecx, DWORD PTR _s$[ebp]
  003c8	23 41 54	 and	 eax, DWORD PTR [ecx+84]
  003cb	8b 55 08	 mov	 edx, DWORD PTR _s$[ebp]
  003ce	89 42 48	 mov	 DWORD PTR [edx+72], eax
$LN5@deflate_fa:

; 1528 : #if MIN_MATCH != 3
; 1529 :                 Call UPDATE_HASH() MIN_MATCH-3 more times
; 1530 : #endif
; 1531 :                 /* If lookahead < MIN_MATCH, ins_h is garbage, but it does not
; 1532 :                  * matter since it will be recomputed at next deflate call.
; 1533 :                  */
; 1534 :             }
; 1535 :         } else {

  003d1	e9 b4 00 00 00	 jmp	 $LN4@deflate_fa
$LN10@deflate_fa:

; 1536 :             /* No match, output a literal byte */
; 1537 :             Tracevv((stderr,"%c", s->window[s->strstart]));
; 1538 :             _tr_tally_lit (s, s->window[s->strstart], bflush);

  003d6	8b 45 08	 mov	 eax, DWORD PTR _s$[ebp]
  003d9	8b 48 38	 mov	 ecx, DWORD PTR [eax+56]
  003dc	8b 55 08	 mov	 edx, DWORD PTR _s$[ebp]
  003df	8b 42 6c	 mov	 eax, DWORD PTR [edx+108]
  003e2	8a 0c 01	 mov	 cl, BYTE PTR [ecx+eax]
  003e5	88 4d ef	 mov	 BYTE PTR _cc$78064[ebp], cl
  003e8	8b 55 08	 mov	 edx, DWORD PTR _s$[ebp]
  003eb	8b 82 a0 16 00
	00		 mov	 eax, DWORD PTR [edx+5792]
  003f1	8b 4d 08	 mov	 ecx, DWORD PTR _s$[ebp]
  003f4	8b 91 a4 16 00
	00		 mov	 edx, DWORD PTR [ecx+5796]
  003fa	33 c9		 xor	 ecx, ecx
  003fc	66 89 0c 42	 mov	 WORD PTR [edx+eax*2], cx
  00400	8b 55 08	 mov	 edx, DWORD PTR _s$[ebp]
  00403	8b 82 98 16 00
	00		 mov	 eax, DWORD PTR [edx+5784]
  00409	8b 4d 08	 mov	 ecx, DWORD PTR _s$[ebp]
  0040c	8b 91 a0 16 00
	00		 mov	 edx, DWORD PTR [ecx+5792]
  00412	8a 4d ef	 mov	 cl, BYTE PTR _cc$78064[ebp]
  00415	88 0c 10	 mov	 BYTE PTR [eax+edx], cl
  00418	8b 55 08	 mov	 edx, DWORD PTR _s$[ebp]
  0041b	8b 82 a0 16 00
	00		 mov	 eax, DWORD PTR [edx+5792]
  00421	83 c0 01	 add	 eax, 1
  00424	8b 4d 08	 mov	 ecx, DWORD PTR _s$[ebp]
  00427	89 81 a0 16 00
	00		 mov	 DWORD PTR [ecx+5792], eax
  0042d	0f b6 55 ef	 movzx	 edx, BYTE PTR _cc$78064[ebp]
  00431	8b 45 08	 mov	 eax, DWORD PTR _s$[ebp]
  00434	66 8b 8c 90 94
	00 00 00	 mov	 cx, WORD PTR [eax+edx*4+148]
  0043c	66 83 c1 01	 add	 cx, 1
  00440	0f b6 55 ef	 movzx	 edx, BYTE PTR _cc$78064[ebp]
  00444	8b 45 08	 mov	 eax, DWORD PTR _s$[ebp]
  00447	66 89 8c 90 94
	00 00 00	 mov	 WORD PTR [eax+edx*4+148], cx
  0044f	8b 4d 08	 mov	 ecx, DWORD PTR _s$[ebp]
  00452	8b 91 9c 16 00
	00		 mov	 edx, DWORD PTR [ecx+5788]
  00458	83 ea 01	 sub	 edx, 1
  0045b	8b 45 08	 mov	 eax, DWORD PTR _s$[ebp]
  0045e	33 c9		 xor	 ecx, ecx
  00460	39 90 a0 16 00
	00		 cmp	 DWORD PTR [eax+5792], edx
  00466	0f 94 c1	 sete	 cl
  00469	89 4d fc	 mov	 DWORD PTR _bflush$[ebp], ecx

; 1539 :             s->lookahead--;

  0046c	8b 55 08	 mov	 edx, DWORD PTR _s$[ebp]
  0046f	8b 42 74	 mov	 eax, DWORD PTR [edx+116]
  00472	83 e8 01	 sub	 eax, 1
  00475	8b 4d 08	 mov	 ecx, DWORD PTR _s$[ebp]
  00478	89 41 74	 mov	 DWORD PTR [ecx+116], eax

; 1540 :             s->strstart++;

  0047b	8b 55 08	 mov	 edx, DWORD PTR _s$[ebp]
  0047e	8b 42 6c	 mov	 eax, DWORD PTR [edx+108]
  00481	83 c0 01	 add	 eax, 1
  00484	8b 4d 08	 mov	 ecx, DWORD PTR _s$[ebp]
  00487	89 41 6c	 mov	 DWORD PTR [ecx+108], eax
$LN4@deflate_fa:

; 1541 :         }
; 1542 :         if (bflush) FLUSH_BLOCK(s, 0);

  0048a	83 7d fc 00	 cmp	 DWORD PTR _bflush$[ebp], 0
  0048e	74 6c		 je	 SHORT $LN3@deflate_fa
  00490	8b 55 08	 mov	 edx, DWORD PTR _s$[ebp]
  00493	83 7a 5c 00	 cmp	 DWORD PTR [edx+92], 0
  00497	7c 11		 jl	 SHORT $LN25@deflate_fa
  00499	8b 45 08	 mov	 eax, DWORD PTR _s$[ebp]
  0049c	8b 48 38	 mov	 ecx, DWORD PTR [eax+56]
  0049f	8b 55 08	 mov	 edx, DWORD PTR _s$[ebp]
  004a2	03 4a 5c	 add	 ecx, DWORD PTR [edx+92]
  004a5	89 4d e4	 mov	 DWORD PTR tv364[ebp], ecx
  004a8	eb 07		 jmp	 SHORT $LN26@deflate_fa
$LN25@deflate_fa:
  004aa	c7 45 e4 00 00
	00 00		 mov	 DWORD PTR tv364[ebp], 0
$LN26@deflate_fa:
  004b1	6a 00		 push	 0
  004b3	8b 45 08	 mov	 eax, DWORD PTR _s$[ebp]
  004b6	8b 4d 08	 mov	 ecx, DWORD PTR _s$[ebp]
  004b9	8b 50 6c	 mov	 edx, DWORD PTR [eax+108]
  004bc	2b 51 5c	 sub	 edx, DWORD PTR [ecx+92]
  004bf	52		 push	 edx
  004c0	8b 45 e4	 mov	 eax, DWORD PTR tv364[ebp]
  004c3	50		 push	 eax
  004c4	8b 4d 08	 mov	 ecx, DWORD PTR _s$[ebp]
  004c7	51		 push	 ecx
  004c8	e8 00 00 00 00	 call	 __tr_flush_block
  004cd	83 c4 10	 add	 esp, 16			; 00000010H
  004d0	8b 55 08	 mov	 edx, DWORD PTR _s$[ebp]
  004d3	8b 45 08	 mov	 eax, DWORD PTR _s$[ebp]
  004d6	8b 48 6c	 mov	 ecx, DWORD PTR [eax+108]
  004d9	89 4a 5c	 mov	 DWORD PTR [edx+92], ecx
  004dc	8b 55 08	 mov	 edx, DWORD PTR _s$[ebp]
  004df	8b 02		 mov	 eax, DWORD PTR [edx]
  004e1	50		 push	 eax
  004e2	e8 00 00 00 00	 call	 _flush_pending
  004e7	83 c4 04	 add	 esp, 4
  004ea	8b 4d 08	 mov	 ecx, DWORD PTR _s$[ebp]
  004ed	8b 11		 mov	 edx, DWORD PTR [ecx]
  004ef	83 7a 10 00	 cmp	 DWORD PTR [edx+16], 0
  004f3	75 07		 jne	 SHORT $LN3@deflate_fa
  004f5	33 c0		 xor	 eax, eax
  004f7	e9 90 00 00 00	 jmp	 $LN21@deflate_fa
$LN3@deflate_fa:

; 1543 :     }

  004fc	e9 0d fb ff ff	 jmp	 $LN20@deflate_fa
$LN19@deflate_fa:

; 1544 :     FLUSH_BLOCK(s, flush == Z_FINISH);

  00501	8b 45 08	 mov	 eax, DWORD PTR _s$[ebp]
  00504	83 78 5c 00	 cmp	 DWORD PTR [eax+92], 0
  00508	7c 11		 jl	 SHORT $LN27@deflate_fa
  0050a	8b 4d 08	 mov	 ecx, DWORD PTR _s$[ebp]
  0050d	8b 51 38	 mov	 edx, DWORD PTR [ecx+56]
  00510	8b 45 08	 mov	 eax, DWORD PTR _s$[ebp]
  00513	03 50 5c	 add	 edx, DWORD PTR [eax+92]
  00516	89 55 e0	 mov	 DWORD PTR tv384[ebp], edx
  00519	eb 07		 jmp	 SHORT $LN28@deflate_fa
$LN27@deflate_fa:
  0051b	c7 45 e0 00 00
	00 00		 mov	 DWORD PTR tv384[ebp], 0
$LN28@deflate_fa:
  00522	33 c9		 xor	 ecx, ecx
  00524	83 7d 0c 04	 cmp	 DWORD PTR _flush$[ebp], 4
  00528	0f 94 c1	 sete	 cl
  0052b	51		 push	 ecx
  0052c	8b 55 08	 mov	 edx, DWORD PTR _s$[ebp]
  0052f	8b 45 08	 mov	 eax, DWORD PTR _s$[ebp]
  00532	8b 4a 6c	 mov	 ecx, DWORD PTR [edx+108]
  00535	2b 48 5c	 sub	 ecx, DWORD PTR [eax+92]
  00538	51		 push	 ecx
  00539	8b 55 e0	 mov	 edx, DWORD PTR tv384[ebp]
  0053c	52		 push	 edx
  0053d	8b 45 08	 mov	 eax, DWORD PTR _s$[ebp]
  00540	50		 push	 eax
  00541	e8 00 00 00 00	 call	 __tr_flush_block
  00546	83 c4 10	 add	 esp, 16			; 00000010H
  00549	8b 4d 08	 mov	 ecx, DWORD PTR _s$[ebp]
  0054c	8b 55 08	 mov	 edx, DWORD PTR _s$[ebp]
  0054f	8b 42 6c	 mov	 eax, DWORD PTR [edx+108]
  00552	89 41 5c	 mov	 DWORD PTR [ecx+92], eax
  00555	8b 4d 08	 mov	 ecx, DWORD PTR _s$[ebp]
  00558	8b 11		 mov	 edx, DWORD PTR [ecx]
  0055a	52		 push	 edx
  0055b	e8 00 00 00 00	 call	 _flush_pending
  00560	83 c4 04	 add	 esp, 4
  00563	8b 45 08	 mov	 eax, DWORD PTR _s$[ebp]
  00566	8b 08		 mov	 ecx, DWORD PTR [eax]
  00568	83 79 10 00	 cmp	 DWORD PTR [ecx+16], 0
  0056c	75 11		 jne	 SHORT $LN1@deflate_fa
  0056e	33 c0		 xor	 eax, eax
  00570	83 7d 0c 04	 cmp	 DWORD PTR _flush$[ebp], 4
  00574	0f 95 c0	 setne	 al
  00577	83 e8 01	 sub	 eax, 1
  0057a	83 e0 02	 and	 eax, 2
  0057d	eb 0d		 jmp	 SHORT $LN21@deflate_fa
$LN1@deflate_fa:

; 1545 :     return flush == Z_FINISH ? finish_done : block_done;

  0057f	33 c0		 xor	 eax, eax
  00581	83 7d 0c 04	 cmp	 DWORD PTR _flush$[ebp], 4
  00585	0f 94 c0	 sete	 al
  00588	8d 44 00 01	 lea	 eax, DWORD PTR [eax+eax+1]
$LN21@deflate_fa:

; 1546 : }

  0058c	5e		 pop	 esi
  0058d	8b e5		 mov	 esp, ebp
  0058f	5d		 pop	 ebp
  00590	c3		 ret	 0
_deflate_fast ENDP
; Function compile flags: /Odtp
_TEXT	ENDS
;	COMDAT _deflate_stored
_TEXT	SEGMENT
tv178 = -20						; size = 4
tv158 = -16						; size = 4
tv134 = -12						; size = 4
_max_block_size$ = -8					; size = 4
_max_start$ = -4					; size = 4
_s$ = 8							; size = 4
_flush$ = 12						; size = 4
_deflate_stored PROC					; COMDAT

; 1393 : {

  00000	55		 push	 ebp
  00001	8b ec		 mov	 ebp, esp
  00003	83 ec 14	 sub	 esp, 20			; 00000014H

; 1394 :     /* Stored blocks are limited to 0xffff bytes, pending_buf is limited
; 1395 :      * to pending_buf_size, and each stored block has a 5 byte header:
; 1396 :      */
; 1397 :     ulg max_block_size = 0xffff;

  00006	c7 45 f8 ff ff
	00 00		 mov	 DWORD PTR _max_block_size$[ebp], 65535 ; 0000ffffH

; 1398 :     ulg max_start;
; 1399 : 
; 1400 :     if (max_block_size > s->pending_buf_size - 5) {

  0000d	8b 45 08	 mov	 eax, DWORD PTR _s$[ebp]
  00010	8b 48 0c	 mov	 ecx, DWORD PTR [eax+12]
  00013	83 e9 05	 sub	 ecx, 5
  00016	39 4d f8	 cmp	 DWORD PTR _max_block_size$[ebp], ecx
  00019	76 0c		 jbe	 SHORT $LN11@deflate_st

; 1401 :         max_block_size = s->pending_buf_size - 5;

  0001b	8b 55 08	 mov	 edx, DWORD PTR _s$[ebp]
  0001e	8b 42 0c	 mov	 eax, DWORD PTR [edx+12]
  00021	83 e8 05	 sub	 eax, 5
  00024	89 45 f8	 mov	 DWORD PTR _max_block_size$[ebp], eax
$LN11@deflate_st:

; 1402 :     }
; 1403 : 
; 1404 :     /* Copy as much as possible from input to output: */
; 1405 :     for (;;) {
; 1406 :         /* Fill the window as much as possible: */
; 1407 :         if (s->lookahead <= 1) {

  00027	8b 4d 08	 mov	 ecx, DWORD PTR _s$[ebp]
  0002a	83 79 74 01	 cmp	 DWORD PTR [ecx+116], 1
  0002e	77 30		 ja	 SHORT $LN9@deflate_st

; 1408 : 
; 1409 :             Assert(s->strstart < s->w_size+MAX_DIST(s) ||
; 1410 :                    s->block_start >= (long)s->w_size, "slide too late");
; 1411 : 
; 1412 :             fill_window(s);

  00030	8b 55 08	 mov	 edx, DWORD PTR _s$[ebp]
  00033	52		 push	 edx
  00034	e8 00 00 00 00	 call	 _fill_window
  00039	83 c4 04	 add	 esp, 4

; 1413 :             if (s->lookahead == 0 && flush == Z_NO_FLUSH) return need_more;

  0003c	8b 45 08	 mov	 eax, DWORD PTR _s$[ebp]
  0003f	83 78 74 00	 cmp	 DWORD PTR [eax+116], 0
  00043	75 0d		 jne	 SHORT $LN8@deflate_st
  00045	83 7d 0c 00	 cmp	 DWORD PTR _flush$[ebp], 0
  00049	75 07		 jne	 SHORT $LN8@deflate_st
  0004b	33 c0		 xor	 eax, eax
  0004d	e9 ea 01 00 00	 jmp	 $LN13@deflate_st
$LN8@deflate_st:

; 1414 : 
; 1415 :             if (s->lookahead == 0) break; /* flush the current block */

  00052	8b 4d 08	 mov	 ecx, DWORD PTR _s$[ebp]
  00055	83 79 74 00	 cmp	 DWORD PTR [ecx+116], 0
  00059	75 05		 jne	 SHORT $LN9@deflate_st
  0005b	e9 51 01 00 00	 jmp	 $LN10@deflate_st
$LN9@deflate_st:

; 1416 :         }
; 1417 :         Assert(s->block_start >= 0L, "block gone");
; 1418 : 
; 1419 :         s->strstart += s->lookahead;

  00060	8b 55 08	 mov	 edx, DWORD PTR _s$[ebp]
  00063	8b 42 6c	 mov	 eax, DWORD PTR [edx+108]
  00066	8b 4d 08	 mov	 ecx, DWORD PTR _s$[ebp]
  00069	03 41 74	 add	 eax, DWORD PTR [ecx+116]
  0006c	8b 55 08	 mov	 edx, DWORD PTR _s$[ebp]
  0006f	89 42 6c	 mov	 DWORD PTR [edx+108], eax

; 1420 :         s->lookahead = 0;

  00072	8b 45 08	 mov	 eax, DWORD PTR _s$[ebp]
  00075	c7 40 74 00 00
	00 00		 mov	 DWORD PTR [eax+116], 0

; 1421 : 
; 1422 :         /* Emit a stored block if pending_buf will be full: */
; 1423 :         max_start = s->block_start + max_block_size;

  0007c	8b 4d 08	 mov	 ecx, DWORD PTR _s$[ebp]
  0007f	8b 51 5c	 mov	 edx, DWORD PTR [ecx+92]
  00082	03 55 f8	 add	 edx, DWORD PTR _max_block_size$[ebp]
  00085	89 55 fc	 mov	 DWORD PTR _max_start$[ebp], edx

; 1424 :         if (s->strstart == 0 || (ulg)s->strstart >= max_start) {

  00088	8b 45 08	 mov	 eax, DWORD PTR _s$[ebp]
  0008b	83 78 6c 00	 cmp	 DWORD PTR [eax+108], 0
  0008f	74 0f		 je	 SHORT $LN5@deflate_st
  00091	8b 4d 08	 mov	 ecx, DWORD PTR _s$[ebp]
  00094	8b 51 6c	 mov	 edx, DWORD PTR [ecx+108]
  00097	3b 55 fc	 cmp	 edx, DWORD PTR _max_start$[ebp]
  0009a	0f 82 84 00 00
	00		 jb	 $LN6@deflate_st
$LN5@deflate_st:

; 1425 :             /* strstart == 0 is possible when wraparound on 16-bit machine */
; 1426 :             s->lookahead = (uInt)(s->strstart - max_start);

  000a0	8b 45 08	 mov	 eax, DWORD PTR _s$[ebp]
  000a3	8b 48 6c	 mov	 ecx, DWORD PTR [eax+108]
  000a6	2b 4d fc	 sub	 ecx, DWORD PTR _max_start$[ebp]
  000a9	8b 55 08	 mov	 edx, DWORD PTR _s$[ebp]
  000ac	89 4a 74	 mov	 DWORD PTR [edx+116], ecx

; 1427 :             s->strstart = (uInt)max_start;

  000af	8b 45 08	 mov	 eax, DWORD PTR _s$[ebp]
  000b2	8b 4d fc	 mov	 ecx, DWORD PTR _max_start$[ebp]
  000b5	89 48 6c	 mov	 DWORD PTR [eax+108], ecx

; 1428 :             FLUSH_BLOCK(s, 0);

  000b8	8b 55 08	 mov	 edx, DWORD PTR _s$[ebp]
  000bb	83 7a 5c 00	 cmp	 DWORD PTR [edx+92], 0
  000bf	7c 11		 jl	 SHORT $LN15@deflate_st
  000c1	8b 45 08	 mov	 eax, DWORD PTR _s$[ebp]
  000c4	8b 48 38	 mov	 ecx, DWORD PTR [eax+56]
  000c7	8b 55 08	 mov	 edx, DWORD PTR _s$[ebp]
  000ca	03 4a 5c	 add	 ecx, DWORD PTR [edx+92]
  000cd	89 4d f4	 mov	 DWORD PTR tv134[ebp], ecx
  000d0	eb 07		 jmp	 SHORT $LN16@deflate_st
$LN15@deflate_st:
  000d2	c7 45 f4 00 00
	00 00		 mov	 DWORD PTR tv134[ebp], 0
$LN16@deflate_st:
  000d9	6a 00		 push	 0
  000db	8b 45 08	 mov	 eax, DWORD PTR _s$[ebp]
  000de	8b 4d 08	 mov	 ecx, DWORD PTR _s$[ebp]
  000e1	8b 50 6c	 mov	 edx, DWORD PTR [eax+108]
  000e4	2b 51 5c	 sub	 edx, DWORD PTR [ecx+92]
  000e7	52		 push	 edx
  000e8	8b 45 f4	 mov	 eax, DWORD PTR tv134[ebp]
  000eb	50		 push	 eax
  000ec	8b 4d 08	 mov	 ecx, DWORD PTR _s$[ebp]
  000ef	51		 push	 ecx
  000f0	e8 00 00 00 00	 call	 __tr_flush_block
  000f5	83 c4 10	 add	 esp, 16			; 00000010H
  000f8	8b 55 08	 mov	 edx, DWORD PTR _s$[ebp]
  000fb	8b 45 08	 mov	 eax, DWORD PTR _s$[ebp]
  000fe	8b 48 6c	 mov	 ecx, DWORD PTR [eax+108]
  00101	89 4a 5c	 mov	 DWORD PTR [edx+92], ecx
  00104	8b 55 08	 mov	 edx, DWORD PTR _s$[ebp]
  00107	8b 02		 mov	 eax, DWORD PTR [edx]
  00109	50		 push	 eax
  0010a	e8 00 00 00 00	 call	 _flush_pending
  0010f	83 c4 04	 add	 esp, 4
  00112	8b 4d 08	 mov	 ecx, DWORD PTR _s$[ebp]
  00115	8b 11		 mov	 edx, DWORD PTR [ecx]
  00117	83 7a 10 00	 cmp	 DWORD PTR [edx+16], 0
  0011b	75 07		 jne	 SHORT $LN6@deflate_st
  0011d	33 c0		 xor	 eax, eax
  0011f	e9 18 01 00 00	 jmp	 $LN13@deflate_st
$LN6@deflate_st:

; 1429 :         }
; 1430 :         /* Flush if we may have to slide, otherwise block_start may become
; 1431 :          * negative and the data will be gone:
; 1432 :          */
; 1433 :         if (s->strstart - (uInt)s->block_start >= MAX_DIST(s)) {

  00124	8b 45 08	 mov	 eax, DWORD PTR _s$[ebp]
  00127	8b 4d 08	 mov	 ecx, DWORD PTR _s$[ebp]
  0012a	8b 50 6c	 mov	 edx, DWORD PTR [eax+108]
  0012d	2b 51 5c	 sub	 edx, DWORD PTR [ecx+92]
  00130	8b 45 08	 mov	 eax, DWORD PTR _s$[ebp]
  00133	8b 48 2c	 mov	 ecx, DWORD PTR [eax+44]
  00136	81 e9 06 01 00
	00		 sub	 ecx, 262		; 00000106H
  0013c	3b d1		 cmp	 edx, ecx
  0013e	72 6c		 jb	 SHORT $LN3@deflate_st

; 1434 :             FLUSH_BLOCK(s, 0);

  00140	8b 55 08	 mov	 edx, DWORD PTR _s$[ebp]
  00143	83 7a 5c 00	 cmp	 DWORD PTR [edx+92], 0
  00147	7c 11		 jl	 SHORT $LN17@deflate_st
  00149	8b 45 08	 mov	 eax, DWORD PTR _s$[ebp]
  0014c	8b 48 38	 mov	 ecx, DWORD PTR [eax+56]
  0014f	8b 55 08	 mov	 edx, DWORD PTR _s$[ebp]
  00152	03 4a 5c	 add	 ecx, DWORD PTR [edx+92]
  00155	89 4d f0	 mov	 DWORD PTR tv158[ebp], ecx
  00158	eb 07		 jmp	 SHORT $LN18@deflate_st
$LN17@deflate_st:
  0015a	c7 45 f0 00 00
	00 00		 mov	 DWORD PTR tv158[ebp], 0
$LN18@deflate_st:
  00161	6a 00		 push	 0
  00163	8b 45 08	 mov	 eax, DWORD PTR _s$[ebp]
  00166	8b 4d 08	 mov	 ecx, DWORD PTR _s$[ebp]
  00169	8b 50 6c	 mov	 edx, DWORD PTR [eax+108]
  0016c	2b 51 5c	 sub	 edx, DWORD PTR [ecx+92]
  0016f	52		 push	 edx
  00170	8b 45 f0	 mov	 eax, DWORD PTR tv158[ebp]
  00173	50		 push	 eax
  00174	8b 4d 08	 mov	 ecx, DWORD PTR _s$[ebp]
  00177	51		 push	 ecx
  00178	e8 00 00 00 00	 call	 __tr_flush_block
  0017d	83 c4 10	 add	 esp, 16			; 00000010H
  00180	8b 55 08	 mov	 edx, DWORD PTR _s$[ebp]
  00183	8b 45 08	 mov	 eax, DWORD PTR _s$[ebp]
  00186	8b 48 6c	 mov	 ecx, DWORD PTR [eax+108]
  00189	89 4a 5c	 mov	 DWORD PTR [edx+92], ecx
  0018c	8b 55 08	 mov	 edx, DWORD PTR _s$[ebp]
  0018f	8b 02		 mov	 eax, DWORD PTR [edx]
  00191	50		 push	 eax
  00192	e8 00 00 00 00	 call	 _flush_pending
  00197	83 c4 04	 add	 esp, 4
  0019a	8b 4d 08	 mov	 ecx, DWORD PTR _s$[ebp]
  0019d	8b 11		 mov	 edx, DWORD PTR [ecx]
  0019f	83 7a 10 00	 cmp	 DWORD PTR [edx+16], 0
  001a3	75 07		 jne	 SHORT $LN3@deflate_st
  001a5	33 c0		 xor	 eax, eax
  001a7	e9 90 00 00 00	 jmp	 $LN13@deflate_st
$LN3@deflate_st:

; 1435 :         }
; 1436 :     }

  001ac	e9 76 fe ff ff	 jmp	 $LN11@deflate_st
$LN10@deflate_st:

; 1437 :     FLUSH_BLOCK(s, flush == Z_FINISH);

  001b1	8b 45 08	 mov	 eax, DWORD PTR _s$[ebp]
  001b4	83 78 5c 00	 cmp	 DWORD PTR [eax+92], 0
  001b8	7c 11		 jl	 SHORT $LN19@deflate_st
  001ba	8b 4d 08	 mov	 ecx, DWORD PTR _s$[ebp]
  001bd	8b 51 38	 mov	 edx, DWORD PTR [ecx+56]
  001c0	8b 45 08	 mov	 eax, DWORD PTR _s$[ebp]
  001c3	03 50 5c	 add	 edx, DWORD PTR [eax+92]
  001c6	89 55 ec	 mov	 DWORD PTR tv178[ebp], edx
  001c9	eb 07		 jmp	 SHORT $LN20@deflate_st
$LN19@deflate_st:
  001cb	c7 45 ec 00 00
	00 00		 mov	 DWORD PTR tv178[ebp], 0
$LN20@deflate_st:
  001d2	33 c9		 xor	 ecx, ecx
  001d4	83 7d 0c 04	 cmp	 DWORD PTR _flush$[ebp], 4
  001d8	0f 94 c1	 sete	 cl
  001db	51		 push	 ecx
  001dc	8b 55 08	 mov	 edx, DWORD PTR _s$[ebp]
  001df	8b 45 08	 mov	 eax, DWORD PTR _s$[ebp]
  001e2	8b 4a 6c	 mov	 ecx, DWORD PTR [edx+108]
  001e5	2b 48 5c	 sub	 ecx, DWORD PTR [eax+92]
  001e8	51		 push	 ecx
  001e9	8b 55 ec	 mov	 edx, DWORD PTR tv178[ebp]
  001ec	52		 push	 edx
  001ed	8b 45 08	 mov	 eax, DWORD PTR _s$[ebp]
  001f0	50		 push	 eax
  001f1	e8 00 00 00 00	 call	 __tr_flush_block
  001f6	83 c4 10	 add	 esp, 16			; 00000010H
  001f9	8b 4d 08	 mov	 ecx, DWORD PTR _s$[ebp]
  001fc	8b 55 08	 mov	 edx, DWORD PTR _s$[ebp]
  001ff	8b 42 6c	 mov	 eax, DWORD PTR [edx+108]
  00202	89 41 5c	 mov	 DWORD PTR [ecx+92], eax
  00205	8b 4d 08	 mov	 ecx, DWORD PTR _s$[ebp]
  00208	8b 11		 mov	 edx, DWORD PTR [ecx]
  0020a	52		 push	 edx
  0020b	e8 00 00 00 00	 call	 _flush_pending
  00210	83 c4 04	 add	 esp, 4
  00213	8b 45 08	 mov	 eax, DWORD PTR _s$[ebp]
  00216	8b 08		 mov	 ecx, DWORD PTR [eax]
  00218	83 79 10 00	 cmp	 DWORD PTR [ecx+16], 0
  0021c	75 11		 jne	 SHORT $LN1@deflate_st
  0021e	33 c0		 xor	 eax, eax
  00220	83 7d 0c 04	 cmp	 DWORD PTR _flush$[ebp], 4
  00224	0f 95 c0	 setne	 al
  00227	83 e8 01	 sub	 eax, 1
  0022a	83 e0 02	 and	 eax, 2
  0022d	eb 0d		 jmp	 SHORT $LN13@deflate_st
$LN1@deflate_st:

; 1438 :     return flush == Z_FINISH ? finish_done : block_done;

  0022f	33 c0		 xor	 eax, eax
  00231	83 7d 0c 04	 cmp	 DWORD PTR _flush$[ebp], 4
  00235	0f 94 c0	 sete	 al
  00238	8d 44 00 01	 lea	 eax, DWORD PTR [eax+eax+1]
$LN13@deflate_st:

; 1439 : }

  0023c	8b e5		 mov	 esp, ebp
  0023e	5d		 pop	 ebp
  0023f	c3		 ret	 0
_deflate_stored ENDP
END
